(lp0
(lp1
S'how'
p2
aS'can'
p3
aS'i'
p4
aS'describe'
p5
aS'my'
p6
aS'emotions'
p7
aS'at'
p8
aS'this'
p9
aS'catastrophe'
p10
aS'or'
p11
aS'how'
p12
aS'delineate'
p13
aS'the'
p14
aS'wretch'
p15
aS'whom'
p16
aS'with'
p17
aS'such'
p18
aS'infinite'
p19
aS'pains'
p20
aS'and'
p21
aS'care'
p22
ag4
aS'had'
p23
aS'endeavoured'
p24
aS'to'
p25
aS'form'
p26
aa(lp27
S'his'
p28
aS'limbs'
p29
aS'were'
p30
aS'in'
p31
aS'proportion'
p32
aS'and'
p33
ag4
aS'had'
p34
aS'selected'
p35
aS'his'
p36
aS'features'
p37
aS'as'
p38
aS'beautiful'
p39
aa(lp40
S'beautiful'
p41
aa(lp42
S'great'
p43
aS'god'
p44
aa(lp45
S'his'
p46
aS'yellow'
p47
aS'skin'
p48
aS'scarcely'
p49
aS'covered'
p50
aS'the'
p51
aS'work'
p52
aS'of'
p53
aS'muscles'
p54
aS'and'
p55
aS'arteries'
p56
aS'beneath'
p57
aS'his'
p58
aS'hair'
p59
aS'was'
p60
aS'of'
p61
aS'a'
p62
aS'lustrous'
p63
aS'black'
p64
aS'and'
p65
aS'flowing'
p66
aS'his'
p67
aS'teeth'
p68
aS'of'
p69
ag62
aS'pearly'
p70
aS'whiteness'
p71
aS'but'
p72
aS'these'
p73
aS'luxuriances'
p74
aS'only'
p75
aS'formed'
p76
ag62
aS'more'
p77
aS'horrid'
p78
aS'contrast'
p79
aS'with'
p80
aS'his'
p81
aS'watery'
p82
aS'eyes'
p83
aS'that'
p84
aS'seemed'
p85
aS'almost'
p86
aS'of'
p87
aS'the'
p88
aS'same'
p89
aS'colour'
p90
aS'as'
p91
aS'the'
p92
aS'dun'
p93
aS'white'
p94
aS'sockets'
p95
aS'in'
p96
aS'which'
p97
aS'they'
p98
aS'were'
p99
aS'set'
p100
aS'his'
p101
aS'shrivelled'
p102
aS'complexion'
p103
aS'and'
p104
aS'straight'
p105
aS'black'
p106
aS'lips'
p107
aa(lp108
S'the'
p109
aS'different'
p110
aS'accidents'
p111
aS'of'
p112
aS'life'
p113
aS'are'
p114
aS'not'
p115
aS'so'
p116
aS'changeable'
p117
aS'as'
p118
aS'the'
p119
aS'feelings'
p120
aS'of'
p121
aS'human'
p122
aS'nature'
p123
aa(lp124
g4
aS'had'
p125
aS'worked'
p126
aS'hard'
p127
aS'for'
p128
aS'nearly'
p129
aS'two'
p130
aS'years'
p131
aS'for'
p132
aS'the'
p133
aS'sole'
p134
aS'purpose'
p135
aS'of'
p136
aS'infusing'
p137
aS'life'
p138
aS'into'
p139
aS'an'
p140
aS'inanimate'
p141
aS'body'
p142
aa(lp143
S'for'
p144
aS'this'
p145
ag4
aS'had'
p146
aS'deprived'
p147
aS'myself'
p148
aS'of'
p149
aS'rest'
p150
aS'and'
p151
aS'health'
p152
aa(lp153
g4
aS'had'
p154
aS'desired'
p155
aS'it'
p156
aS'with'
p157
aS'an'
p158
aS'ardour'
p159
aS'that'
p160
aS'far'
p161
aS'exceeded'
p162
aS'moderation'
p163
aS'but'
p164
aS'now'
p165
aS'that'
p166
ag4
aS'had'
p167
aS'finished'
p168
aS'the'
p169
aS'beauty'
p170
aS'of'
p171
aS'the'
p172
aS'dream'
p173
aS'vanished'
p174
aS'and'
p175
aS'breathless'
p176
aS'horror'
p177
aS'and'
p178
aS'disgust'
p179
aS'filled'
p180
aS'my'
p181
aS'heart'
p182
aa(lp183
S'unable'
p184
aS'to'
p185
aS'endure'
p186
aS'the'
p187
aS'aspect'
p188
aS'of'
p189
aS'the'
p190
aS'being'
p191
ag4
aS'had'
p192
aS'created'
p193
ag4
aS'rushed'
p194
aS'out'
p195
aS'of'
p196
aS'the'
p197
aS'room'
p198
aS'and'
p199
aS'continued'
p200
ag62
aS'long'
p201
aS'time'
p202
aS'traversing'
p203
aS'my'
p204
aS'bedchamber'
p205
aS'unable'
p206
aS'to'
p207
aS'compose'
p208
aS'my'
p209
aS'mind'
p210
aS'to'
p211
aS'sleep'
p212
aa(lp213
S'at'
p214
aS'length'
p215
aS'lassitude'
p216
aS'succeeded'
p217
aS'to'
p218
aS'the'
p219
aS'tumult'
p220
ag4
aS'had'
p221
aS'before'
p222
aS'endured'
p223
aS'and'
p224
ag4
aS'threw'
p225
aS'myself'
p226
aS'on'
p227
aS'the'
p228
aS'bed'
p229
aS'in'
p230
aS'my'
p231
aS'clothes'
p232
aS'endeavouring'
p233
aS'to'
p234
aS'seek'
p235
ag62
aS'few'
p236
aS'moments'
p237
aS'of'
p238
aS'forgetfulness'
p239
aa(lp240
S'but'
p241
aS'it'
p242
aS'was'
p243
aS'in'
p244
aS'vain'
p245
ag4
aS'slept'
p246
aS'indeed'
p247
aS'but'
p248
ag4
aS'was'
p249
aS'disturbed'
p250
aS'by'
p251
aS'the'
p252
aS'wildest'
p253
aS'dreams'
p254
aa(lp255
g4
aS'thought'
p256
ag4
aS'saw'
p257
aS'elizabeth'
p258
aS'in'
p259
aS'the'
p260
aS'bloom'
p261
aS'of'
p262
aS'health'
p263
aS'walking'
p264
aS'in'
p265
aS'the'
p266
aS'streets'
p267
aS'of'
p268
aS'ingolstadt'
p269
aa(lp270
S'delighted'
p271
aS'and'
p272
aS'surprised'
p273
ag4
aS'embraced'
p274
aS'her'
p275
aS'but'
p276
aS'as'
p277
ag4
aS'imprinted'
p278
aS'the'
p279
aS'first'
p280
aS'kiss'
p281
aS'on'
p282
aS'her'
p283
aS'lips'
p284
aS'they'
p285
aS'became'
p286
aS'livid'
p287
aS'with'
p288
aS'the'
p289
aS'hue'
p290
aS'of'
p291
aS'death'
p292
aS'her'
p293
aS'features'
p294
aS'appeared'
p295
aS'to'
p296
aS'change'
p297
aS'and'
p298
ag4
aS'thought'
p299
aS'that'
p300
ag4
aS'held'
p301
aS'the'
p302
aS'corpse'
p303
aS'of'
p304
aS'my'
p305
aS'dead'
p306
aS'mother'
p307
aS'in'
p308
aS'my'
p309
aS'arms'
p310
ag62
aS'shroud'
p311
aS'enveloped'
p312
aS'her'
p313
aS'form'
p314
aS'and'
p315
ag4
aS'saw'
p316
aS'the'
p317
aS'graveworms'
p318
aS'crawling'
p319
aS'in'
p320
aS'the'
p321
aS'folds'
p322
aS'of'
p323
aS'the'
p324
aS'flannel'
p325
aa(lp326
g4
aS'started'
p327
aS'from'
p328
aS'my'
p329
aS'sleep'
p330
aS'with'
p331
aS'horror'
p332
ag62
aS'cold'
p333
aS'dew'
p334
aS'covered'
p335
aS'my'
p336
aS'forehead'
p337
aS'my'
p338
aS'teeth'
p339
aS'chattered'
p340
aS'and'
p341
aS'every'
p342
aS'limb'
p343
aS'became'
p344
aS'convulsed'
p345
aS'when'
p346
aS'by'
p347
aS'the'
p348
aS'dim'
p349
aS'and'
p350
aS'yellow'
p351
aS'light'
p352
aS'of'
p353
aS'the'
p354
aS'moon'
p355
aS'as'
p356
aS'it'
p357
aS'forced'
p358
aS'its'
p359
aS'way'
p360
aS'through'
p361
aS'the'
p362
aS'window'
p363
aS'shutters'
p364
ag4
aS'beheld'
p365
aS'the'
p366
aS'wretchthe'
p367
aS'miserable'
p368
aS'monster'
p369
aS'whom'
p370
ag4
aS'had'
p371
aS'created'
p372
aa(lp373
S'he'
p374
aS'held'
p375
aS'up'
p376
aS'the'
p377
aS'curtain'
p378
aS'of'
p379
aS'the'
p380
aS'bed'
p381
aS'and'
p382
aS'his'
p383
aS'eyes'
p384
aS'if'
p385
aS'eyes'
p386
aS'they'
p387
aS'may'
p388
aS'be'
p389
aS'called'
p390
aS'were'
p391
aS'fixed'
p392
aS'on'
p393
aS'me'
p394
aa(lp395
S'his'
p396
aS'jaws'
p397
aS'opened'
p398
aS'and'
p399
aS'he'
p400
aS'muttered'
p401
aS'some'
p402
aS'inarticulate'
p403
aS'sounds'
p404
aS'while'
p405
ag62
aS'grin'
p406
aS'wrinkled'
p407
aS'his'
p408
aS'cheeks'
p409
aa(lp410
S'he'
p411
aS'might'
p412
aS'have'
p413
aS'spoken'
p414
aS'but'
p415
ag4
aS'did'
p416
aS'not'
p417
aS'hear'
p418
aS'one'
p419
aS'hand'
p420
aS'was'
p421
aS'stretched'
p422
aS'out'
p423
aS'seemingly'
p424
aS'to'
p425
aS'detain'
p426
aS'me'
p427
aS'but'
p428
ag4
aS'escaped'
p429
aS'and'
p430
aS'rushed'
p431
aS'down'
p432
aS'stairs'
p433
aa(lp434
g4
aS'took'
p435
aS'refuge'
p436
aS'in'
p437
aS'the'
p438
aS'courtyard'
p439
aS'belonging'
p440
aS'to'
p441
aS'the'
p442
aS'house'
p443
aS'which'
p444
ag4
aS'inhabited'
p445
aS'where'
p446
ag4
aS'remained'
p447
aS'during'
p448
aS'the'
p449
aS'rest'
p450
aS'of'
p451
aS'the'
p452
aS'night'
p453
aS'walking'
p454
aS'up'
p455
aS'and'
p456
aS'down'
p457
aS'in'
p458
aS'the'
p459
aS'greatest'
p460
aS'agitation'
p461
aS'listening'
p462
aS'attentively'
p463
aS'catching'
p464
aS'and'
p465
aS'fearing'
p466
aS'each'
p467
aS'sound'
p468
aS'as'
p469
aS'if'
p470
aS'it'
p471
aS'were'
p472
aS'to'
p473
aS'announce'
p474
aS'the'
p475
aS'approach'
p476
aS'of'
p477
aS'the'
p478
aS'demoniacal'
p479
aS'corpse'
p480
aS'to'
p481
aS'which'
p482
ag4
aS'had'
p483
aS'so'
p484
aS'miserably'
p485
aS'given'
p486
aS'life'
p487
aa(lp488
S'oh'
p489
aa(lp490
S'no'
p491
aS'mortal'
p492
aS'could'
p493
aS'support'
p494
aS'the'
p495
aS'horror'
p496
aS'of'
p497
aS'that'
p498
aS'countenance'
p499
aa(lp500
g62
aS'mummy'
p501
aS'again'
p502
aS'endued'
p503
aS'with'
p504
aS'animation'
p505
aS'could'
p506
aS'not'
p507
aS'be'
p508
aS'so'
p509
aS'hideous'
p510
aS'as'
p511
aS'that'
p512
aS'wretch'
p513
aa(lp514
g4
aS'had'
p515
aS'gazed'
p516
aS'on'
p517
aS'him'
p518
aS'while'
p519
aS'unfinished'
p520
aS'he'
p521
aS'was'
p522
aS'ugly'
p523
aS'then'
p524
aS'but'
p525
aS'when'
p526
aS'those'
p527
aS'muscles'
p528
aS'and'
p529
aS'joints'
p530
aS'were'
p531
aS'rendered'
p532
aS'capable'
p533
aS'of'
p534
aS'motion'
p535
aS'it'
p536
aS'became'
p537
ag62
aS'thing'
p538
aS'such'
p539
aS'as'
p540
aS'even'
p541
aS'dante'
p542
aS'could'
p543
aS'not'
p544
aS'have'
p545
aS'conceived'
p546
aa(lp547
g4
aS'passed'
p548
aS'the'
p549
aS'night'
p550
aS'wretchedly'
p551
aa(lp552
S'sometimes'
p553
aS'my'
p554
aS'pulse'
p555
aS'beat'
p556
aS'so'
p557
aS'quickly'
p558
aS'and'
p559
aS'hardly'
p560
aS'that'
p561
ag4
aS'felt'
p562
aS'the'
p563
aS'palpitation'
p564
aS'of'
p565
aS'every'
p566
aS'artery'
p567
aS'at'
p568
aS'others'
p569
ag4
aS'nearly'
p570
aS'sank'
p571
aS'to'
p572
aS'the'
p573
aS'ground'
p574
aS'through'
p575
aS'languor'
p576
aS'and'
p577
aS'extreme'
p578
aS'weakness'
p579
aa(lp580
S'mingled'
p581
aS'with'
p582
aS'this'
p583
aS'horror'
p584
ag4
aS'felt'
p585
aS'the'
p586
aS'bitterness'
p587
aS'of'
p588
aS'disappointment'
p589
aS'dreams'
p590
aS'that'
p591
aS'had'
p592
aS'been'
p593
aS'my'
p594
aS'food'
p595
aS'and'
p596
aS'pleasant'
p597
aS'rest'
p598
aS'for'
p599
aS'so'
p600
aS'long'
p601
ag62
aS'space'
p602
aS'were'
p603
aS'now'
p604
aS'become'
p605
ag62
aS'hell'
p606
aS'to'
p607
aS'me'
p608
aS'and'
p609
aS'the'
p610
aS'change'
p611
aS'was'
p612
aS'so'
p613
aS'rapid'
p614
aS'the'
p615
aS'overthrow'
p616
aS'so'
p617
aS'complete'
p618
aa(lp619
S'morning'
p620
aS'dismal'
p621
aS'and'
p622
aS'wet'
p623
aS'at'
p624
aS'length'
p625
aS'dawned'
p626
aS'and'
p627
aS'discovered'
p628
aS'to'
p629
aS'my'
p630
aS'sleepless'
p631
aS'and'
p632
aS'aching'
p633
aS'eyes'
p634
aS'the'
p635
aS'church'
p636
aS'of'
p637
aS'ingolstadt'
p638
aS'its'
p639
aS'white'
p640
aS'steeple'
p641
aS'and'
p642
aS'clock'
p643
aS'which'
p644
aS'indicated'
p645
aS'the'
p646
aS'sixth'
p647
aS'hour'
p648
aa(lp649
S'the'
p650
aS'porter'
p651
aS'opened'
p652
aS'the'
p653
aS'gates'
p654
aS'of'
p655
aS'the'
p656
aS'court'
p657
aS'which'
p658
aS'had'
p659
aS'that'
p660
aS'night'
p661
aS'been'
p662
aS'my'
p663
aS'asylum'
p664
aS'and'
p665
ag4
aS'issued'
p666
aS'into'
p667
aS'the'
p668
aS'streets'
p669
aS'pacing'
p670
aS'them'
p671
aS'with'
p672
aS'quick'
p673
aS'steps'
p674
aS'as'
p675
aS'if'
p676
ag4
aS'sought'
p677
aS'to'
p678
aS'avoid'
p679
aS'the'
p680
aS'wretch'
p681
aS'whom'
p682
ag4
aS'feared'
p683
aS'every'
p684
aS'turning'
p685
aS'of'
p686
aS'the'
p687
aS'street'
p688
aS'would'
p689
aS'present'
p690
aS'to'
p691
aS'my'
p692
aS'view'
p693
aa(lp694
g4
aS'did'
p695
aS'not'
p696
aS'dare'
p697
aS'return'
p698
aS'to'
p699
aS'the'
p700
aS'apartment'
p701
aS'which'
p702
ag4
aS'inhabited'
p703
aS'but'
p704
aS'felt'
p705
aS'impelled'
p706
aS'to'
p707
aS'hurry'
p708
aS'on'
p709
aS'although'
p710
aS'drenched'
p711
aS'by'
p712
aS'the'
p713
aS'rain'
p714
aS'which'
p715
aS'poured'
p716
aS'from'
p717
ag62
aS'black'
p718
aS'and'
p719
aS'comfortless'
p720
aS'sky'
p721
aa(lp722
g4
aS'continued'
p723
aS'walking'
p724
aS'in'
p725
aS'this'
p726
aS'manner'
p727
aS'for'
p728
aS'some'
p729
aS'time'
p730
aS'endeavouring'
p731
aS'by'
p732
aS'bodily'
p733
aS'exercise'
p734
aS'to'
p735
aS'ease'
p736
aS'the'
p737
aS'load'
p738
aS'that'
p739
aS'weighed'
p740
aS'upon'
p741
aS'my'
p742
aS'mind'
p743
aa(lp744
g4
aS'traversed'
p745
aS'the'
p746
aS'streets'
p747
aS'without'
p748
aS'any'
p749
aS'clear'
p750
aS'conception'
p751
aS'of'
p752
aS'where'
p753
ag4
aS'was'
p754
aS'or'
p755
aS'what'
p756
ag4
aS'was'
p757
aS'doing'
p758
aa(lp759
S'my'
p760
aS'heart'
p761
aS'palpitated'
p762
aS'in'
p763
aS'the'
p764
aS'sickness'
p765
aS'of'
p766
aS'fear'
p767
aS'and'
p768
ag4
aS'hurried'
p769
aS'on'
p770
aS'with'
p771
aS'irregular'
p772
aS'steps'
p773
aS'not'
p774
aS'daring'
p775
aS'to'
p776
aS'look'
p777
aS'about'
p778
aS'me'
p779
aS'like'
p780
aS'one'
p781
aS'who'
p782
aS'on'
p783
ag62
aS'lonely'
p784
aS'road'
p785
aS'doth'
p786
aS'walk'
p787
aS'in'
p788
aS'fear'
p789
aS'and'
p790
aS'dread'
p791
aS'and'
p792
aS'having'
p793
aS'once'
p794
aS'turned'
p795
aS'round'
p796
aS'walks'
p797
aS'on'
p798
aS'and'
p799
aS'turns'
p800
aS'no'
p801
aS'more'
p802
aS'his'
p803
aS'head'
p804
aS'because'
p805
aS'he'
p806
aS'knows'
p807
ag62
aS'frightful'
p808
aS'fiend'
p809
aS'doth'
p810
aS'close'
p811
aS'behind'
p812
aS'him'
p813
aS'tread'
p814
aa(lp815
S'1'
p816
aS'footnote'
p817
ag816
aS'coleridges'
p818
aS'ancient'
p819
aS'mariner'
p820
aa(lp821
S'continuing'
p822
aS'thus'
p823
ag4
aS'came'
p824
aS'at'
p825
aS'length'
p826
aS'opposite'
p827
aS'to'
p828
aS'the'
p829
aS'inn'
p830
aS'at'
p831
aS'which'
p832
aS'the'
p833
aS'various'
p834
aS'diligences'
p835
aS'and'
p836
aS'carriages'
p837
aS'usually'
p838
aS'stopped'
p839
aa(lp840
S'here'
p841
ag4
aS'paused'
p842
ag4
aS'knew'
p843
aS'not'
p844
aS'why'
p845
aS'but'
p846
ag4
aS'remained'
p847
aS'some'
p848
aS'minutes'
p849
aS'with'
p850
aS'my'
p851
aS'eyes'
p852
aS'fixed'
p853
aS'on'
p854
ag62
aS'coach'
p855
aS'that'
p856
aS'was'
p857
aS'coming'
p858
aS'towards'
p859
aS'me'
p860
aS'from'
p861
aS'the'
p862
aS'other'
p863
aS'end'
p864
aS'of'
p865
aS'the'
p866
aS'street'
p867
aa(lp868
S'as'
p869
aS'it'
p870
aS'drew'
p871
aS'nearer'
p872
ag4
aS'observed'
p873
aS'that'
p874
aS'it'
p875
aS'was'
p876
aS'the'
p877
aS'swiss'
p878
aS'diligence'
p879
aS'it'
p880
aS'stopped'
p881
aS'just'
p882
aS'where'
p883
ag4
aS'was'
p884
aS'standing'
p885
aS'and'
p886
aS'on'
p887
aS'the'
p888
aS'door'
p889
aS'being'
p890
aS'opened'
p891
ag4
aS'perceived'
p892
aS'henry'
p893
aS'clerval'
p894
aS'who'
p895
aS'on'
p896
aS'seeing'
p897
aS'me'
p898
aS'instantly'
p899
aS'sprung'
p900
aS'out'
p901
aa(lp902
S'my'
p903
aS'dear'
p904
aS'frankenstein'
p905
aS'exclaimed'
p906
aS'he'
p907
aS'how'
p908
aS'glad'
p909
ag4
aS'am'
p910
aS'to'
p911
aS'see'
p912
aS'you'
p913
aa(lp914
S'how'
p915
aS'fortunate'
p916
aS'that'
p917
aS'you'
p918
aS'should'
p919
aS'be'
p920
aS'here'
p921
aS'at'
p922
aS'the'
p923
aS'very'
p924
aS'moment'
p925
aS'of'
p926
aS'my'
p927
aS'alighting'
p928
aa(lp929
S'nothing'
p930
aS'could'
p931
aS'equal'
p932
aS'my'
p933
aS'delight'
p934
aS'on'
p935
aS'seeing'
p936
aS'clerval'
p937
aS'his'
p938
aS'presence'
p939
aS'brought'
p940
aS'back'
p941
aS'to'
p942
aS'my'
p943
aS'thoughts'
p944
aS'my'
p945
aS'father'
p946
aS'elizabeth'
p947
aS'and'
p948
aS'all'
p949
aS'those'
p950
aS'scenes'
p951
aS'of'
p952
aS'home'
p953
aS'so'
p954
aS'dear'
p955
aS'to'
p956
aS'my'
p957
aS'recollection'
p958
aa(lp959
g4
aS'grasped'
p960
aS'his'
p961
aS'hand'
p962
aS'and'
p963
aS'in'
p964
ag62
aS'moment'
p965
aS'forgot'
p966
aS'my'
p967
aS'horror'
p968
aS'and'
p969
aS'misfortune'
p970
ag4
aS'felt'
p971
aS'suddenly'
p972
aS'and'
p973
aS'for'
p974
aS'the'
p975
aS'first'
p976
aS'time'
p977
aS'during'
p978
aS'many'
p979
aS'months'
p980
aS'calm'
p981
aS'and'
p982
aS'serene'
p983
aS'joy'
p984
aa(lp985
g4
aS'welcomed'
p986
aS'my'
p987
aS'friend'
p988
aS'therefore'
p989
aS'in'
p990
aS'the'
p991
aS'most'
p992
aS'cordial'
p993
aS'manner'
p994
aS'and'
p995
aS'we'
p996
aS'walked'
p997
aS'towards'
p998
aS'my'
p999
aS'college'
p1000
aa(lp1001
S'clerval'
p1002
aS'continued'
p1003
aS'talking'
p1004
aS'for'
p1005
aS'some'
p1006
aS'time'
p1007
aS'about'
p1008
aS'our'
p1009
aS'mutual'
p1010
aS'friends'
p1011
aS'and'
p1012
aS'his'
p1013
aS'own'
p1014
aS'good'
p1015
aS'fortune'
p1016
aS'in'
p1017
aS'being'
p1018
aS'permitted'
p1019
aS'to'
p1020
aS'come'
p1021
aS'to'
p1022
aS'ingolstadt'
p1023
aa(lp1024
S'you'
p1025
aS'may'
p1026
aS'easily'
p1027
aS'believe'
p1028
aS'said'
p1029
aS'he'
p1030
aS'how'
p1031
aS'great'
p1032
aS'was'
p1033
aS'the'
p1034
aS'difficulty'
p1035
aS'to'
p1036
aS'persuade'
p1037
aS'my'
p1038
aS'father'
p1039
aS'that'
p1040
aS'all'
p1041
aS'necessary'
p1042
aS'knowledge'
p1043
aS'was'
p1044
aS'not'
p1045
aS'comprised'
p1046
aS'in'
p1047
aS'the'
p1048
aS'noble'
p1049
aS'art'
p1050
aS'of'
p1051
aS'bookkeeping'
p1052
aS'and'
p1053
aS'indeed'
p1054
ag4
aS'believe'
p1055
ag4
aS'left'
p1056
aS'him'
p1057
aS'incredulous'
p1058
aS'to'
p1059
aS'the'
p1060
aS'last'
p1061
aS'for'
p1062
aS'his'
p1063
aS'constant'
p1064
aS'answer'
p1065
aS'to'
p1066
aS'my'
p1067
aS'unwearied'
p1068
aS'entreaties'
p1069
aS'was'
p1070
aS'the'
p1071
aS'same'
p1072
aS'as'
p1073
aS'that'
p1074
aS'of'
p1075
aS'the'
p1076
aS'dutch'
p1077
aS'schoolmaster'
p1078
aS'in'
p1079
aS'the'
p1080
aS'vicar'
p1081
aS'of'
p1082
aS'wakefieldi'
p1083
aS'have'
p1084
aS'ten'
p1085
aS'thousand'
p1086
aS'florins'
p1087
ag62
aS'year'
p1088
aS'without'
p1089
aS'greek'
p1090
ag4
aS'eat'
p1091
aS'heartily'
p1092
aS'without'
p1093
aS'greek'
p1094
aa(lp1095
S'but'
p1096
aS'his'
p1097
aS'affection'
p1098
aS'for'
p1099
aS'me'
p1100
aS'at'
p1101
aS'length'
p1102
aS'overcame'
p1103
aS'his'
p1104
aS'dislike'
p1105
aS'of'
p1106
aS'learning'
p1107
aS'and'
p1108
aS'he'
p1109
aS'has'
p1110
aS'permitted'
p1111
aS'me'
p1112
aS'to'
p1113
aS'undertake'
p1114
ag62
aS'voyage'
p1115
aS'of'
p1116
aS'discovery'
p1117
aS'to'
p1118
aS'the'
p1119
aS'land'
p1120
aS'of'
p1121
aS'knowledge'
p1122
aa(lp1123
S'it'
p1124
aS'gives'
p1125
aS'me'
p1126
aS'the'
p1127
aS'greatest'
p1128
aS'delight'
p1129
aS'to'
p1130
aS'see'
p1131
aS'you'
p1132
aS'but'
p1133
aS'tell'
p1134
aS'me'
p1135
aS'how'
p1136
aS'you'
p1137
aS'left'
p1138
aS'my'
p1139
aS'father'
p1140
aS'brothers'
p1141
aS'and'
p1142
aS'elizabeth'
p1143
aa(lp1144
S'very'
p1145
aS'well'
p1146
aS'and'
p1147
aS'very'
p1148
aS'happy'
p1149
aS'only'
p1150
ag62
aS'little'
p1151
aS'uneasy'
p1152
aS'that'
p1153
aS'they'
p1154
aS'hear'
p1155
aS'from'
p1156
aS'you'
p1157
aS'so'
p1158
aS'seldom'
p1159
aa(lp1160
S'by'
p1161
aS'the'
p1162
aS'by'
p1163
ag4
aS'mean'
p1164
aS'to'
p1165
aS'lecture'
p1166
aS'you'
p1167
ag62
aS'little'
p1168
aS'upon'
p1169
aS'their'
p1170
aS'account'
p1171
aS'myself'
p1172
aa(lp1173
S'but'
p1174
aS'my'
p1175
aS'dear'
p1176
aS'frankenstein'
p1177
aS'continued'
p1178
aS'he'
p1179
aS'stopping'
p1180
aS'short'
p1181
aS'and'
p1182
aS'gazing'
p1183
aS'full'
p1184
aS'in'
p1185
aS'my'
p1186
aS'face'
p1187
ag4
aS'did'
p1188
aS'not'
p1189
aS'before'
p1190
aS'remark'
p1191
aS'how'
p1192
aS'very'
p1193
aS'ill'
p1194
aS'you'
p1195
aS'appear'
p1196
aS'so'
p1197
aS'thin'
p1198
aS'and'
p1199
aS'pale'
p1200
aS'you'
p1201
aS'look'
p1202
aS'as'
p1203
aS'if'
p1204
aS'you'
p1205
aS'had'
p1206
aS'been'
p1207
aS'watching'
p1208
aS'for'
p1209
aS'several'
p1210
aS'nights'
p1211
aa(lp1212
S'you'
p1213
aS'have'
p1214
aS'guessed'
p1215
aS'right'
p1216
ag4
aS'have'
p1217
aS'lately'
p1218
aS'been'
p1219
aS'so'
p1220
aS'deeply'
p1221
aS'engaged'
p1222
aS'in'
p1223
aS'one'
p1224
aS'occupation'
p1225
aS'that'
p1226
ag4
aS'have'
p1227
aS'not'
p1228
aS'allowed'
p1229
aS'myself'
p1230
aS'sufficient'
p1231
aS'rest'
p1232
aS'as'
p1233
aS'you'
p1234
aS'see'
p1235
aS'but'
p1236
ag4
aS'hope'
p1237
ag4
aS'sincerely'
p1238
aS'hope'
p1239
aS'that'
p1240
aS'all'
p1241
aS'these'
p1242
aS'employments'
p1243
aS'are'
p1244
aS'now'
p1245
aS'at'
p1246
aS'an'
p1247
aS'end'
p1248
aS'and'
p1249
aS'that'
p1250
ag4
aS'am'
p1251
aS'at'
p1252
aS'length'
p1253
aS'free'
p1254
aa(lp1255
g4
aS'trembled'
p1256
aS'excessively'
p1257
ag4
aS'could'
p1258
aS'not'
p1259
aS'endure'
p1260
aS'to'
p1261
aS'think'
p1262
aS'of'
p1263
aS'and'
p1264
aS'far'
p1265
aS'less'
p1266
aS'to'
p1267
aS'allude'
p1268
aS'to'
p1269
aS'the'
p1270
aS'occurrences'
p1271
aS'of'
p1272
aS'the'
p1273
aS'preceding'
p1274
aS'night'
p1275
aa(lp1276
g4
aS'walked'
p1277
aS'with'
p1278
ag62
aS'quick'
p1279
aS'pace'
p1280
aS'and'
p1281
aS'we'
p1282
aS'soon'
p1283
aS'arrived'
p1284
aS'at'
p1285
aS'my'
p1286
aS'college'
p1287
aa(lp1288
g4
aS'then'
p1289
aS'reflected'
p1290
aS'and'
p1291
aS'the'
p1292
aS'thought'
p1293
aS'made'
p1294
aS'me'
p1295
aS'shiver'
p1296
aS'that'
p1297
aS'the'
p1298
aS'creature'
p1299
aS'whom'
p1300
ag4
aS'had'
p1301
aS'left'
p1302
aS'in'
p1303
aS'my'
p1304
aS'apartment'
p1305
aS'might'
p1306
aS'still'
p1307
aS'be'
p1308
aS'there'
p1309
aS'alive'
p1310
aS'and'
p1311
aS'walking'
p1312
aS'about'
p1313
aa(lp1314
g4
aS'dreaded'
p1315
aS'to'
p1316
aS'behold'
p1317
aS'this'
p1318
aS'monster'
p1319
aS'but'
p1320
ag4
aS'feared'
p1321
aS'still'
p1322
aS'more'
p1323
aS'that'
p1324
aS'henry'
p1325
aS'should'
p1326
aS'see'
p1327
aS'him'
p1328
aa(lp1329
S'entreating'
p1330
aS'him'
p1331
aS'therefore'
p1332
aS'to'
p1333
aS'remain'
p1334
ag62
aS'few'
p1335
aS'minutes'
p1336
aS'at'
p1337
aS'the'
p1338
aS'bottom'
p1339
aS'of'
p1340
aS'the'
p1341
aS'stairs'
p1342
ag4
aS'darted'
p1343
aS'up'
p1344
aS'towards'
p1345
aS'my'
p1346
aS'own'
p1347
aS'room'
p1348
aa(lp1349
S'my'
p1350
aS'hand'
p1351
aS'was'
p1352
aS'already'
p1353
aS'on'
p1354
aS'the'
p1355
aS'lock'
p1356
aS'of'
p1357
aS'the'
p1358
aS'door'
p1359
aS'before'
p1360
ag4
aS'recollected'
p1361
aS'myself'
p1362
aa(lp1363
g4
aS'then'
p1364
aS'paused'
p1365
aS'and'
p1366
ag62
aS'cold'
p1367
aS'shivering'
p1368
aS'came'
p1369
aS'over'
p1370
aS'me'
p1371
aa(lp1372
g4
aS'threw'
p1373
aS'the'
p1374
aS'door'
p1375
aS'forcibly'
p1376
aS'open'
p1377
aS'as'
p1378
aS'children'
p1379
aS'are'
p1380
aS'accustomed'
p1381
aS'to'
p1382
aS'do'
p1383
aS'when'
p1384
aS'they'
p1385
aS'expect'
p1386
ag62
aS'spectre'
p1387
aS'to'
p1388
aS'stand'
p1389
aS'in'
p1390
aS'waiting'
p1391
aS'for'
p1392
aS'them'
p1393
aS'on'
p1394
aS'the'
p1395
aS'other'
p1396
aS'side'
p1397
aS'but'
p1398
aS'nothing'
p1399
aS'appeared'
p1400
aa(lp1401
g4
aS'stepped'
p1402
aS'fearfully'
p1403
aS'in'
p1404
aS'the'
p1405
aS'apartment'
p1406
aS'was'
p1407
aS'empty'
p1408
aS'and'
p1409
aS'my'
p1410
aS'bedroom'
p1411
aS'was'
p1412
aS'also'
p1413
aS'freed'
p1414
aS'from'
p1415
aS'its'
p1416
aS'hideous'
p1417
aS'guest'
p1418
aa(lp1419
g4
aS'could'
p1420
aS'hardly'
p1421
aS'believe'
p1422
aS'that'
p1423
aS'so'
p1424
aS'great'
p1425
ag62
aS'good'
p1426
aS'fortune'
p1427
aS'could'
p1428
aS'have'
p1429
aS'befallen'
p1430
aS'me'
p1431
aS'but'
p1432
aS'when'
p1433
ag4
aS'became'
p1434
aS'assured'
p1435
aS'that'
p1436
aS'my'
p1437
aS'enemy'
p1438
aS'had'
p1439
aS'indeed'
p1440
aS'fled'
p1441
ag4
aS'clapped'
p1442
aS'my'
p1443
aS'hands'
p1444
aS'for'
p1445
aS'joy'
p1446
aS'and'
p1447
aS'ran'
p1448
aS'down'
p1449
aS'to'
p1450
aS'clerval'
p1451
aa(lp1452
S'we'
p1453
aS'ascended'
p1454
aS'into'
p1455
aS'my'
p1456
aS'room'
p1457
aS'and'
p1458
aS'the'
p1459
aS'servant'
p1460
aS'presently'
p1461
aS'brought'
p1462
aS'breakfast'
p1463
aS'but'
p1464
ag4
aS'was'
p1465
aS'unable'
p1466
aS'to'
p1467
aS'contain'
p1468
aS'myself'
p1469
aa(lp1470
S'it'
p1471
aS'was'
p1472
aS'not'
p1473
aS'joy'
p1474
aS'only'
p1475
aS'that'
p1476
aS'possessed'
p1477
aS'me'
p1478
ag4
aS'felt'
p1479
aS'my'
p1480
aS'flesh'
p1481
aS'tingle'
p1482
aS'with'
p1483
aS'excess'
p1484
aS'of'
p1485
aS'sensitiveness'
p1486
aS'and'
p1487
aS'my'
p1488
aS'pulse'
p1489
aS'beat'
p1490
aS'rapidly'
p1491
aa(lp1492
g4
aS'was'
p1493
aS'unable'
p1494
aS'to'
p1495
aS'remain'
p1496
aS'for'
p1497
ag62
aS'single'
p1498
aS'instant'
p1499
aS'in'
p1500
aS'the'
p1501
aS'same'
p1502
aS'place'
p1503
ag4
aS'jumped'
p1504
aS'over'
p1505
aS'the'
p1506
aS'chairs'
p1507
aS'clapped'
p1508
aS'my'
p1509
aS'hands'
p1510
aS'and'
p1511
aS'laughed'
p1512
aS'aloud'
p1513
aa(lp1514
S'clerval'
p1515
aS'at'
p1516
aS'first'
p1517
aS'attributed'
p1518
aS'my'
p1519
aS'unusual'
p1520
aS'spirits'
p1521
aS'to'
p1522
aS'joy'
p1523
aS'on'
p1524
aS'his'
p1525
aS'arrival'
p1526
aS'but'
p1527
aS'when'
p1528
aS'he'
p1529
aS'observed'
p1530
aS'me'
p1531
aS'more'
p1532
aS'attentively'
p1533
aS'he'
p1534
aS'saw'
p1535
ag62
aS'wildness'
p1536
aS'in'
p1537
aS'my'
p1538
aS'eyes'
p1539
aS'for'
p1540
aS'which'
p1541
aS'he'
p1542
aS'could'
p1543
aS'not'
p1544
aS'account'
p1545
aS'and'
p1546
aS'my'
p1547
aS'loud'
p1548
aS'unrestrained'
p1549
aS'heartless'
p1550
aS'laughter'
p1551
aS'frightened'
p1552
aS'and'
p1553
aS'astonished'
p1554
aS'him'
p1555
aa(lp1556
S'my'
p1557
aS'dear'
p1558
aS'victor'
p1559
aS'cried'
p1560
aS'he'
p1561
aS'what'
p1562
aS'for'
p1563
aS'gods'
p1564
aS'sake'
p1565
aS'is'
p1566
aS'the'
p1567
aS'matter'
p1568
aa(lp1569
S'do'
p1570
aS'not'
p1571
aS'laugh'
p1572
aS'in'
p1573
aS'that'
p1574
aS'manner'
p1575
aa(lp1576
S'how'
p1577
aS'ill'
p1578
aS'you'
p1579
aS'are'
p1580
aa(lp1581
S'what'
p1582
aS'is'
p1583
aS'the'
p1584
aS'cause'
p1585
aS'of'
p1586
aS'all'
p1587
aS'this'
p1588
aa(lp1589
S'do'
p1590
aS'not'
p1591
aS'ask'
p1592
aS'me'
p1593
aS'cried'
p1594
ag4
aS'putting'
p1595
aS'my'
p1596
aS'hands'
p1597
aS'before'
p1598
aS'my'
p1599
aS'eyes'
p1600
aS'for'
p1601
ag4
aS'thought'
p1602
ag4
aS'saw'
p1603
aS'the'
p1604
aS'dreaded'
p1605
aS'spectre'
p1606
aS'glide'
p1607
aS'into'
p1608
aS'the'
p1609
aS'room'
p1610
aS'he'
p1611
aS'can'
p1612
aS'tell'
p1613
aa(lp1614
S'oh'
p1615
aS'save'
p1616
aS'me'
p1617
aa(lp1618
S'save'
p1619
aS'me'
p1620
aa(lp1621
g4
aS'imagined'
p1622
aS'that'
p1623
aS'the'
p1624
aS'monster'
p1625
aS'seized'
p1626
aS'me'
p1627
ag4
aS'struggled'
p1628
aS'furiously'
p1629
aS'and'
p1630
aS'fell'
p1631
aS'down'
p1632
aS'in'
p1633
ag62
aS'fit'
p1634
aa(lp1635
S'poor'
p1636
aS'clerval'
p1637
aa(lp1638
S'what'
p1639
aS'must'
p1640
aS'have'
p1641
aS'been'
p1642
aS'his'
p1643
aS'feelings'
p1644
aa(lp1645
g62
aS'meeting'
p1646
aS'which'
p1647
aS'he'
p1648
aS'anticipated'
p1649
aS'with'
p1650
aS'such'
p1651
aS'joy'
p1652
aS'so'
p1653
aS'strangely'
p1654
aS'turned'
p1655
aS'to'
p1656
aS'bitterness'
p1657
aa(lp1658
S'but'
p1659
ag4
aS'was'
p1660
aS'not'
p1661
aS'the'
p1662
aS'witness'
p1663
aS'of'
p1664
aS'his'
p1665
aS'grief'
p1666
aS'for'
p1667
ag4
aS'was'
p1668
aS'lifeless'
p1669
aS'and'
p1670
aS'did'
p1671
aS'not'
p1672
aS'recover'
p1673
aS'my'
p1674
aS'senses'
p1675
aS'for'
p1676
ag62
aS'long'
p1677
aS'long'
p1678
aS'time'
p1679
aa(lp1680
S'this'
p1681
aS'was'
p1682
aS'the'
p1683
aS'commencement'
p1684
aS'of'
p1685
ag62
aS'nervous'
p1686
aS'fever'
p1687
aS'which'
p1688
aS'confined'
p1689
aS'me'
p1690
aS'for'
p1691
aS'several'
p1692
aS'months'
p1693
aa(lp1694
S'during'
p1695
aS'all'
p1696
aS'that'
p1697
aS'time'
p1698
aS'henry'
p1699
aS'was'
p1700
aS'my'
p1701
aS'only'
p1702
aS'nurse'
p1703
aa(lp1704
g4
aS'afterwards'
p1705
aS'learned'
p1706
aS'that'
p1707
aS'knowing'
p1708
aS'my'
p1709
aS'fathers'
p1710
aS'advanced'
p1711
aS'age'
p1712
aS'and'
p1713
aS'unfitness'
p1714
aS'for'
p1715
aS'so'
p1716
aS'long'
p1717
ag62
aS'journey'
p1718
aS'and'
p1719
aS'how'
p1720
aS'wretched'
p1721
aS'my'
p1722
aS'sickness'
p1723
aS'would'
p1724
aS'make'
p1725
aS'elizabeth'
p1726
aS'he'
p1727
aS'spared'
p1728
aS'them'
p1729
aS'this'
p1730
aS'grief'
p1731
aS'by'
p1732
aS'concealing'
p1733
aS'the'
p1734
aS'extent'
p1735
aS'of'
p1736
aS'my'
p1737
aS'disorder'
p1738
aa(lp1739
S'he'
p1740
aS'knew'
p1741
aS'that'
p1742
ag4
aS'could'
p1743
aS'not'
p1744
aS'have'
p1745
ag62
aS'more'
p1746
aS'kind'
p1747
aS'and'
p1748
aS'attentive'
p1749
aS'nurse'
p1750
aS'than'
p1751
aS'himself'
p1752
aS'and'
p1753
aS'firm'
p1754
aS'in'
p1755
aS'the'
p1756
aS'hope'
p1757
aS'he'
p1758
aS'felt'
p1759
aS'of'
p1760
aS'my'
p1761
aS'recovery'
p1762
aS'he'
p1763
aS'did'
p1764
aS'not'
p1765
aS'doubt'
p1766
aS'that'
p1767
aS'instead'
p1768
aS'of'
p1769
aS'doing'
p1770
aS'harm'
p1771
aS'he'
p1772
aS'performed'
p1773
aS'the'
p1774
aS'kindest'
p1775
aS'action'
p1776
aS'that'
p1777
aS'he'
p1778
aS'could'
p1779
aS'towards'
p1780
aS'them'
p1781
aa(lp1782
S'but'
p1783
ag4
aS'was'
p1784
aS'in'
p1785
aS'reality'
p1786
aS'very'
p1787
aS'ill'
p1788
aS'and'
p1789
aS'surely'
p1790
aS'nothing'
p1791
aS'but'
p1792
aS'the'
p1793
aS'unbounded'
p1794
aS'and'
p1795
aS'unremitting'
p1796
aS'attentions'
p1797
aS'of'
p1798
aS'my'
p1799
aS'friend'
p1800
aS'could'
p1801
aS'have'
p1802
aS'restored'
p1803
aS'me'
p1804
aS'to'
p1805
aS'life'
p1806
aa(lp1807
S'the'
p1808
aS'form'
p1809
aS'of'
p1810
aS'the'
p1811
aS'monster'
p1812
aS'on'
p1813
aS'whom'
p1814
ag4
aS'had'
p1815
aS'bestowed'
p1816
aS'existence'
p1817
aS'was'
p1818
aS'for'
p1819
aS'ever'
p1820
aS'before'
p1821
aS'my'
p1822
aS'eyes'
p1823
aS'and'
p1824
ag4
aS'raved'
p1825
aS'incessantly'
p1826
aS'concerning'
p1827
aS'him'
p1828
aa(lp1829
S'doubtless'
p1830
aS'my'
p1831
aS'words'
p1832
aS'surprised'
p1833
aS'henry'
p1834
aS'he'
p1835
aS'at'
p1836
aS'first'
p1837
aS'believed'
p1838
aS'them'
p1839
aS'to'
p1840
aS'be'
p1841
aS'the'
p1842
aS'wanderings'
p1843
aS'of'
p1844
aS'my'
p1845
aS'disturbed'
p1846
aS'imagination'
p1847
aS'but'
p1848
aS'the'
p1849
aS'pertinacity'
p1850
aS'with'
p1851
aS'which'
p1852
ag4
aS'continually'
p1853
aS'recurred'
p1854
aS'to'
p1855
aS'the'
p1856
aS'same'
p1857
aS'subject'
p1858
aS'persuaded'
p1859
aS'him'
p1860
aS'that'
p1861
aS'my'
p1862
aS'disorder'
p1863
aS'indeed'
p1864
aS'owed'
p1865
aS'its'
p1866
aS'origin'
p1867
aS'to'
p1868
aS'some'
p1869
aS'uncommon'
p1870
aS'and'
p1871
aS'terrible'
p1872
aS'event'
p1873
aa(lp1874
S'by'
p1875
aS'very'
p1876
aS'slow'
p1877
aS'degrees'
p1878
aS'and'
p1879
aS'with'
p1880
aS'frequent'
p1881
aS'relapses'
p1882
aS'that'
p1883
aS'alarmed'
p1884
aS'and'
p1885
aS'grieved'
p1886
aS'my'
p1887
aS'friend'
p1888
ag4
aS'recovered'
p1889
aa(lp1890
g4
aS'remember'
p1891
aS'the'
p1892
aS'first'
p1893
aS'time'
p1894
ag4
aS'became'
p1895
aS'capable'
p1896
aS'of'
p1897
aS'observing'
p1898
aS'outward'
p1899
aS'objects'
p1900
aS'with'
p1901
aS'any'
p1902
aS'kind'
p1903
aS'of'
p1904
aS'pleasure'
p1905
ag4
aS'perceived'
p1906
aS'that'
p1907
aS'the'
p1908
aS'fallen'
p1909
aS'leaves'
p1910
aS'had'
p1911
aS'disappeared'
p1912
aS'and'
p1913
aS'that'
p1914
aS'the'
p1915
aS'young'
p1916
aS'buds'
p1917
aS'were'
p1918
aS'shooting'
p1919
aS'forth'
p1920
aS'from'
p1921
aS'the'
p1922
aS'trees'
p1923
aS'that'
p1924
aS'shaded'
p1925
aS'my'
p1926
aS'window'
p1927
aa(lp1928
S'it'
p1929
aS'was'
p1930
ag62
aS'divine'
p1931
aS'spring'
p1932
aS'and'
p1933
aS'the'
p1934
aS'season'
p1935
aS'contributed'
p1936
aS'greatly'
p1937
aS'to'
p1938
aS'my'
p1939
aS'convalescence'
p1940
aa(lp1941
g4
aS'felt'
p1942
aS'also'
p1943
aS'sentiments'
p1944
aS'of'
p1945
aS'joy'
p1946
aS'and'
p1947
aS'affection'
p1948
aS'revive'
p1949
aS'in'
p1950
aS'my'
p1951
aS'bosom'
p1952
aS'my'
p1953
aS'gloom'
p1954
aS'disappeared'
p1955
aS'and'
p1956
aS'in'
p1957
ag62
aS'short'
p1958
aS'time'
p1959
ag4
aS'became'
p1960
aS'as'
p1961
aS'cheerful'
p1962
aS'as'
p1963
aS'before'
p1964
ag4
aS'was'
p1965
aS'attacked'
p1966
aS'by'
p1967
aS'the'
p1968
aS'fatal'
p1969
aS'passion'
p1970
aa(lp1971
S'dearest'
p1972
aS'clerval'
p1973
aS'exclaimed'
p1974
ag4
aS'how'
p1975
aS'kind'
p1976
aS'how'
p1977
aS'very'
p1978
aS'good'
p1979
aS'you'
p1980
aS'are'
p1981
aS'to'
p1982
aS'me'
p1983
aa(lp1984
S'this'
p1985
aS'whole'
p1986
aS'winter'
p1987
aS'instead'
p1988
aS'of'
p1989
aS'being'
p1990
aS'spent'
p1991
aS'in'
p1992
aS'study'
p1993
aS'as'
p1994
aS'you'
p1995
aS'promised'
p1996
aS'yourself'
p1997
aS'has'
p1998
aS'been'
p1999
aS'consumed'
p2000
aS'in'
p2001
aS'my'
p2002
aS'sick'
p2003
aS'room'
p2004
aa(lp2005
S'how'
p2006
aS'shall'
p2007
ag4
aS'ever'
p2008
aS'repay'
p2009
aS'you'
p2010
aa(lp2011
g4
aS'feel'
p2012
aS'the'
p2013
aS'greatest'
p2014
aS'remorse'
p2015
aS'for'
p2016
aS'the'
p2017
aS'disappointment'
p2018
aS'of'
p2019
aS'which'
p2020
ag4
aS'have'
p2021
aS'been'
p2022
aS'the'
p2023
aS'occasion'
p2024
aS'but'
p2025
aS'you'
p2026
aS'will'
p2027
aS'forgive'
p2028
aS'me'
p2029
aa(lp2030
S'you'
p2031
aS'will'
p2032
aS'repay'
p2033
aS'me'
p2034
aS'entirely'
p2035
aS'if'
p2036
aS'you'
p2037
aS'do'
p2038
aS'not'
p2039
aS'discompose'
p2040
aS'yourself'
p2041
aS'but'
p2042
aS'get'
p2043
aS'well'
p2044
aS'as'
p2045
aS'fast'
p2046
aS'as'
p2047
aS'you'
p2048
aS'can'
p2049
aS'and'
p2050
aS'since'
p2051
aS'you'
p2052
aS'appear'
p2053
aS'in'
p2054
aS'such'
p2055
aS'good'
p2056
aS'spirits'
p2057
ag4
aS'may'
p2058
aS'speak'
p2059
aS'to'
p2060
aS'you'
p2061
aS'on'
p2062
aS'one'
p2063
aS'subject'
p2064
aS'may'
p2065
ag4
aS'not'
p2066
aa(lp2067
g4
aS'trembled'
p2068
aa(lp2069
S'one'
p2070
aS'subject'
p2071
aa(lp2072
S'what'
p2073
aS'could'
p2074
aS'it'
p2075
aS'be'
p2076
aa(lp2077
S'could'
p2078
aS'he'
p2079
aS'allude'
p2080
aS'to'
p2081
aS'an'
p2082
aS'object'
p2083
aS'on'
p2084
aS'whom'
p2085
ag4
aS'dared'
p2086
aS'not'
p2087
aS'even'
p2088
aS'think'
p2089
aa(lp2090
S'compose'
p2091
aS'yourself'
p2092
aS'said'
p2093
aS'clerval'
p2094
aS'who'
p2095
aS'observed'
p2096
aS'my'
p2097
aS'change'
p2098
aS'of'
p2099
aS'colour'
p2100
ag4
aS'will'
p2101
aS'not'
p2102
aS'mention'
p2103
aS'it'
p2104
aS'if'
p2105
aS'it'
p2106
aS'agitates'
p2107
aS'you'
p2108
aS'but'
p2109
aS'your'
p2110
aS'father'
p2111
aS'and'
p2112
aS'cousin'
p2113
aS'would'
p2114
aS'be'
p2115
aS'very'
p2116
aS'happy'
p2117
aS'if'
p2118
aS'they'
p2119
aS'received'
p2120
ag62
aS'letter'
p2121
aS'from'
p2122
aS'you'
p2123
aS'in'
p2124
aS'your'
p2125
aS'own'
p2126
aS'handwriting'
p2127
aa(lp2128
S'they'
p2129
aS'hardly'
p2130
aS'know'
p2131
aS'how'
p2132
aS'ill'
p2133
aS'you'
p2134
aS'have'
p2135
aS'been'
p2136
aS'and'
p2137
aS'are'
p2138
aS'uneasy'
p2139
aS'at'
p2140
aS'your'
p2141
aS'long'
p2142
aS'silence'
p2143
aa(lp2144
S'is'
p2145
aS'that'
p2146
aS'all'
p2147
aS'my'
p2148
aS'dear'
p2149
aS'henry'
p2150
aa(lp2151
S'how'
p2152
aS'could'
p2153
aS'you'
p2154
aS'suppose'
p2155
aS'that'
p2156
aS'my'
p2157
aS'first'
p2158
aS'thought'
p2159
aS'would'
p2160
aS'not'
p2161
aS'fly'
p2162
aS'towards'
p2163
aS'those'
p2164
aS'dear'
p2165
aS'dear'
p2166
aS'friends'
p2167
aS'whom'
p2168
ag4
aS'love'
p2169
aS'and'
p2170
aS'who'
p2171
aS'are'
p2172
aS'so'
p2173
aS'deserving'
p2174
aS'of'
p2175
aS'my'
p2176
aS'love'
p2177
aa(lp2178
S'if'
p2179
aS'this'
p2180
aS'is'
p2181
aS'your'
p2182
aS'present'
p2183
aS'temper'
p2184
aS'my'
p2185
aS'friend'
p2186
aS'you'
p2187
aS'will'
p2188
aS'perhaps'
p2189
aS'be'
p2190
aS'glad'
p2191
aS'to'
p2192
aS'see'
p2193
ag62
aS'letter'
p2194
aS'that'
p2195
aS'has'
p2196
aS'been'
p2197
aS'lying'
p2198
aS'here'
p2199
aS'some'
p2200
aS'days'
p2201
aS'for'
p2202
aS'you'
p2203
aS'it'
p2204
aS'is'
p2205
aS'from'
p2206
aS'your'
p2207
aS'cousin'
p2208
ag4
aS'believe'
p2209
aa(lp2210
S'chapter'
p2211
aS'vi'
p2212
aa(lp2213
S'clerval'
p2214
aS'then'
p2215
aS'put'
p2216
aS'the'
p2217
aS'following'
p2218
aS'letter'
p2219
aS'into'
p2220
aS'my'
p2221
aS'hands'
p2222
aa(lp2223
S'it'
p2224
aS'was'
p2225
aS'from'
p2226
aS'my'
p2227
aS'own'
p2228
aS'elizabeth'
p2229
aS'my'
p2230
aS'dearest'
p2231
aS'cousin'
p2232
aS'you'
p2233
aS'have'
p2234
aS'been'
p2235
aS'ill'
p2236
aS'very'
p2237
aS'ill'
p2238
aS'and'
p2239
aS'even'
p2240
aS'the'
p2241
aS'constant'
p2242
aS'letters'
p2243
aS'of'
p2244
aS'dear'
p2245
aS'kind'
p2246
aS'henry'
p2247
aS'are'
p2248
aS'not'
p2249
aS'sufficient'
p2250
aS'to'
p2251
aS'reassure'
p2252
aS'me'
p2253
aS'on'
p2254
aS'your'
p2255
aS'account'
p2256
aa(lp2257
S'you'
p2258
aS'are'
p2259
aS'forbidden'
p2260
aS'to'
p2261
aS'writeto'
p2262
aS'hold'
p2263
ag62
aS'pen'
p2264
aS'yet'
p2265
aS'one'
p2266
aS'word'
p2267
aS'from'
p2268
aS'you'
p2269
aS'dear'
p2270
aS'victor'
p2271
aS'is'
p2272
aS'necessary'
p2273
aS'to'
p2274
aS'calm'
p2275
aS'our'
p2276
aS'apprehensions'
p2277
aa(lp2278
S'for'
p2279
ag62
aS'long'
p2280
aS'time'
p2281
ag4
aS'have'
p2282
aS'thought'
p2283
aS'that'
p2284
aS'each'
p2285
aS'post'
p2286
aS'would'
p2287
aS'bring'
p2288
aS'this'
p2289
aS'line'
p2290
aS'and'
p2291
aS'my'
p2292
aS'persuasions'
p2293
aS'have'
p2294
aS'restrained'
p2295
aS'my'
p2296
aS'uncle'
p2297
aS'from'
p2298
aS'undertaking'
p2299
ag62
aS'journey'
p2300
aS'to'
p2301
aS'ingolstadt'
p2302
aa(lp2303
g4
aS'have'
p2304
aS'prevented'
p2305
aS'his'
p2306
aS'encountering'
p2307
aS'the'
p2308
aS'inconveniences'
p2309
aS'and'
p2310
aS'perhaps'
p2311
aS'dangers'
p2312
aS'of'
p2313
aS'so'
p2314
aS'long'
p2315
ag62
aS'journey'
p2316
aS'yet'
p2317
aS'how'
p2318
aS'often'
p2319
aS'have'
p2320
ag4
aS'regretted'
p2321
aS'not'
p2322
aS'being'
p2323
aS'able'
p2324
aS'to'
p2325
aS'perform'
p2326
aS'it'
p2327
aS'myself'
p2328
aa(lp2329
g4
aS'figure'
p2330
aS'to'
p2331
aS'myself'
p2332
aS'that'
p2333
aS'the'
p2334
aS'task'
p2335
aS'of'
p2336
aS'attending'
p2337
aS'on'
p2338
aS'your'
p2339
aS'sick'
p2340
aS'bed'
p2341
aS'has'
p2342
aS'devolved'
p2343
aS'on'
p2344
aS'some'
p2345
aS'mercenary'
p2346
aS'old'
p2347
aS'nurse'
p2348
aS'who'
p2349
aS'could'
p2350
aS'never'
p2351
aS'guess'
p2352
aS'your'
p2353
aS'wishes'
p2354
aS'nor'
p2355
aS'minister'
p2356
aS'to'
p2357
aS'them'
p2358
aS'with'
p2359
aS'the'
p2360
aS'care'
p2361
aS'and'
p2362
aS'affection'
p2363
aS'of'
p2364
aS'your'
p2365
aS'poor'
p2366
aS'cousin'
p2367
aa(lp2368
S'yet'
p2369
aS'that'
p2370
aS'is'
p2371
aS'over'
p2372
aS'now'
p2373
aS'clerval'
p2374
aS'writes'
p2375
aS'that'
p2376
aS'indeed'
p2377
aS'you'
p2378
aS'are'
p2379
aS'getting'
p2380
aS'better'
p2381
aa(lp2382
g4
aS'eagerly'
p2383
aS'hope'
p2384
aS'that'
p2385
aS'you'
p2386
aS'will'
p2387
aS'confirm'
p2388
aS'this'
p2389
aS'intelligence'
p2390
aS'soon'
p2391
aS'in'
p2392
aS'your'
p2393
aS'own'
p2394
aS'handwriting'
p2395
aa(lp2396
S'get'
p2397
aS'welland'
p2398
aS'return'
p2399
aS'to'
p2400
aS'us'
p2401
aa(lp2402
S'you'
p2403
aS'will'
p2404
aS'find'
p2405
ag62
aS'happy'
p2406
aS'cheerful'
p2407
aS'home'
p2408
aS'and'
p2409
aS'friends'
p2410
aS'who'
p2411
aS'love'
p2412
aS'you'
p2413
aS'dearly'
p2414
aa(lp2415
S'your'
p2416
aS'fathers'
p2417
aS'health'
p2418
aS'is'
p2419
aS'vigorous'
p2420
aS'and'
p2421
aS'he'
p2422
aS'asks'
p2423
aS'but'
p2424
aS'to'
p2425
aS'see'
p2426
aS'youbut'
p2427
aS'to'
p2428
aS'be'
p2429
aS'assured'
p2430
aS'that'
p2431
aS'you'
p2432
aS'are'
p2433
aS'well'
p2434
aS'and'
p2435
aS'not'
p2436
ag62
aS'care'
p2437
aS'will'
p2438
aS'ever'
p2439
aS'cloud'
p2440
aS'his'
p2441
aS'benevolent'
p2442
aS'countenance'
p2443
aa(lp2444
S'how'
p2445
aS'pleased'
p2446
aS'you'
p2447
aS'would'
p2448
aS'be'
p2449
aS'to'
p2450
aS'remark'
p2451
aS'the'
p2452
aS'improvement'
p2453
aS'of'
p2454
aS'our'
p2455
aS'ernest'
p2456
aa(lp2457
S'he'
p2458
aS'is'
p2459
aS'now'
p2460
aS'sixteen'
p2461
aS'and'
p2462
aS'full'
p2463
aS'of'
p2464
aS'activity'
p2465
aS'and'
p2466
aS'spirit'
p2467
aa(lp2468
S'he'
p2469
aS'is'
p2470
aS'desirous'
p2471
aS'to'
p2472
aS'be'
p2473
ag62
aS'true'
p2474
aS'swiss'
p2475
aS'and'
p2476
aS'to'
p2477
aS'enter'
p2478
aS'into'
p2479
aS'foreign'
p2480
aS'service'
p2481
aS'but'
p2482
aS'we'
p2483
aS'cannot'
p2484
aS'part'
p2485
aS'with'
p2486
aS'him'
p2487
aS'at'
p2488
aS'least'
p2489
aS'until'
p2490
aS'his'
p2491
aS'elder'
p2492
aS'brother'
p2493
aS'return'
p2494
aS'to'
p2495
aS'us'
p2496
aa(lp2497
S'my'
p2498
aS'uncle'
p2499
aS'is'
p2500
aS'not'
p2501
aS'pleased'
p2502
aS'with'
p2503
aS'the'
p2504
aS'idea'
p2505
aS'of'
p2506
ag62
aS'military'
p2507
aS'career'
p2508
aS'in'
p2509
ag62
aS'distant'
p2510
aS'country'
p2511
aS'but'
p2512
aS'ernest'
p2513
aS'never'
p2514
aS'had'
p2515
aS'your'
p2516
aS'powers'
p2517
aS'of'
p2518
aS'application'
p2519
aa(lp2520
S'he'
p2521
aS'looks'
p2522
aS'upon'
p2523
aS'study'
p2524
aS'as'
p2525
aS'an'
p2526
aS'odious'
p2527
aS'fetterhis'
p2528
aS'time'
p2529
aS'is'
p2530
aS'spent'
p2531
aS'in'
p2532
aS'the'
p2533
aS'open'
p2534
aS'air'
p2535
aS'climbing'
p2536
aS'the'
p2537
aS'hills'
p2538
aS'or'
p2539
aS'rowing'
p2540
aS'on'
p2541
aS'the'
p2542
aS'lake'
p2543
aa(lp2544
g4
aS'fear'
p2545
aS'that'
p2546
aS'he'
p2547
aS'will'
p2548
aS'become'
p2549
aS'an'
p2550
aS'idler'
p2551
aS'unless'
p2552
aS'we'
p2553
aS'yield'
p2554
aS'the'
p2555
aS'point'
p2556
aS'and'
p2557
aS'permit'
p2558
aS'him'
p2559
aS'to'
p2560
aS'enter'
p2561
aS'on'
p2562
aS'the'
p2563
aS'profession'
p2564
aS'which'
p2565
aS'he'
p2566
aS'has'
p2567
aS'selected'
p2568
aa(lp2569
S'little'
p2570
aS'alteration'
p2571
aS'except'
p2572
aS'the'
p2573
aS'growth'
p2574
aS'of'
p2575
aS'our'
p2576
aS'dear'
p2577
aS'children'
p2578
aS'has'
p2579
aS'taken'
p2580
aS'place'
p2581
aS'since'
p2582
aS'you'
p2583
aS'left'
p2584
aS'us'
p2585
aa(lp2586
S'the'
p2587
aS'blue'
p2588
aS'lake'
p2589
aS'and'
p2590
aS'snowclad'
p2591
aS'mountains'
p2592
aS'they'
p2593
aS'never'
p2594
aS'changeand'
p2595
ag4
aS'think'
p2596
aS'our'
p2597
aS'placid'
p2598
aS'home'
p2599
aS'and'
p2600
aS'our'
p2601
aS'contented'
p2602
aS'hearts'
p2603
aS'are'
p2604
aS'regulated'
p2605
aS'by'
p2606
aS'the'
p2607
aS'same'
p2608
aS'immutable'
p2609
aS'laws'
p2610
aa(lp2611
S'my'
p2612
aS'trifling'
p2613
aS'occupations'
p2614
aS'take'
p2615
aS'up'
p2616
aS'my'
p2617
aS'time'
p2618
aS'and'
p2619
aS'amuse'
p2620
aS'me'
p2621
aS'and'
p2622
ag4
aS'am'
p2623
aS'rewarded'
p2624
aS'for'
p2625
aS'any'
p2626
aS'exertions'
p2627
aS'by'
p2628
aS'seeing'
p2629
aS'none'
p2630
aS'but'
p2631
aS'happy'
p2632
aS'kind'
p2633
aS'faces'
p2634
aS'around'
p2635
aS'me'
p2636
aa(lp2637
S'since'
p2638
aS'you'
p2639
aS'left'
p2640
aS'us'
p2641
aS'but'
p2642
aS'one'
p2643
aS'change'
p2644
aS'has'
p2645
aS'taken'
p2646
aS'place'
p2647
aS'in'
p2648
aS'our'
p2649
aS'little'
p2650
aS'household'
p2651
aa(lp2652
S'do'
p2653
aS'you'
p2654
aS'remember'
p2655
aS'on'
p2656
aS'what'
p2657
aS'occasion'
p2658
aS'justine'
p2659
aS'moritz'
p2660
aS'entered'
p2661
aS'our'
p2662
aS'family'
p2663
aa(lp2664
S'probably'
p2665
aS'you'
p2666
aS'do'
p2667
aS'not'
p2668
ag4
aS'will'
p2669
aS'relate'
p2670
aS'her'
p2671
aS'history'
p2672
aS'therefore'
p2673
aS'in'
p2674
ag62
aS'few'
p2675
aS'words'
p2676
aa(lp2677
S'madame'
p2678
aS'moritz'
p2679
aS'her'
p2680
aS'mother'
p2681
aS'was'
p2682
ag62
aS'widow'
p2683
aS'with'
p2684
aS'four'
p2685
aS'children'
p2686
aS'of'
p2687
aS'whom'
p2688
aS'justine'
p2689
aS'was'
p2690
aS'the'
p2691
aS'third'
p2692
aa(lp2693
S'this'
p2694
aS'girl'
p2695
aS'had'
p2696
aS'always'
p2697
aS'been'
p2698
aS'the'
p2699
aS'favourite'
p2700
aS'of'
p2701
aS'her'
p2702
aS'father'
p2703
aS'but'
p2704
aS'through'
p2705
ag62
aS'strange'
p2706
aS'perversity'
p2707
aS'her'
p2708
aS'mother'
p2709
aS'could'
p2710
aS'not'
p2711
aS'endure'
p2712
aS'her'
p2713
aS'and'
p2714
aS'after'
p2715
aS'the'
p2716
aS'death'
p2717
aS'of'
p2718
aS'm'
p2719
aa(lp2720
S'moritz'
p2721
aS'treated'
p2722
aS'her'
p2723
aS'very'
p2724
aS'ill'
p2725
aa(lp2726
S'my'
p2727
aS'aunt'
p2728
aS'observed'
p2729
aS'this'
p2730
aS'and'
p2731
aS'when'
p2732
aS'justine'
p2733
aS'was'
p2734
aS'twelve'
p2735
aS'years'
p2736
aS'of'
p2737
aS'age'
p2738
aS'prevailed'
p2739
aS'on'
p2740
aS'her'
p2741
aS'mother'
p2742
aS'to'
p2743
aS'allow'
p2744
aS'her'
p2745
aS'to'
p2746
aS'live'
p2747
aS'at'
p2748
aS'our'
p2749
aS'house'
p2750
aa(lp2751
S'the'
p2752
aS'republican'
p2753
aS'institutions'
p2754
aS'of'
p2755
aS'our'
p2756
aS'country'
p2757
aS'have'
p2758
aS'produced'
p2759
aS'simpler'
p2760
aS'and'
p2761
aS'happier'
p2762
aS'manners'
p2763
aS'than'
p2764
aS'those'
p2765
aS'which'
p2766
aS'prevail'
p2767
aS'in'
p2768
aS'the'
p2769
aS'great'
p2770
aS'monarchies'
p2771
aS'that'
p2772
aS'surround'
p2773
aS'it'
p2774
aa(lp2775
S'hence'
p2776
aS'there'
p2777
aS'is'
p2778
aS'less'
p2779
aS'distinction'
p2780
aS'between'
p2781
aS'the'
p2782
aS'several'
p2783
aS'classes'
p2784
aS'of'
p2785
aS'its'
p2786
aS'inhabitants'
p2787
aS'and'
p2788
aS'the'
p2789
aS'lower'
p2790
aS'orders'
p2791
aS'being'
p2792
aS'neither'
p2793
aS'so'
p2794
aS'poor'
p2795
aS'nor'
p2796
aS'so'
p2797
aS'despised'
p2798
aS'their'
p2799
aS'manners'
p2800
aS'are'
p2801
aS'more'
p2802
aS'refined'
p2803
aS'and'
p2804
aS'moral'
p2805
aa(lp2806
g62
aS'servant'
p2807
aS'in'
p2808
aS'geneva'
p2809
aS'does'
p2810
aS'not'
p2811
aS'mean'
p2812
aS'the'
p2813
aS'same'
p2814
aS'thing'
p2815
aS'as'
p2816
ag62
aS'servant'
p2817
aS'in'
p2818
aS'france'
p2819
aS'and'
p2820
aS'england'
p2821
aa(lp2822
S'justine'
p2823
aS'thus'
p2824
aS'received'
p2825
aS'in'
p2826
aS'our'
p2827
aS'family'
p2828
aS'learned'
p2829
aS'the'
p2830
aS'duties'
p2831
aS'of'
p2832
ag62
aS'servant'
p2833
ag62
aS'condition'
p2834
aS'which'
p2835
aS'in'
p2836
aS'our'
p2837
aS'fortunate'
p2838
aS'country'
p2839
aS'does'
p2840
aS'not'
p2841
aS'include'
p2842
aS'the'
p2843
aS'idea'
p2844
aS'of'
p2845
aS'ignorance'
p2846
aS'and'
p2847
ag62
aS'sacrifice'
p2848
aS'of'
p2849
aS'the'
p2850
aS'dignity'
p2851
aS'of'
p2852
ag62
aS'human'
p2853
aS'being'
p2854
aa(lp2855
S'justine'
p2856
aS'you'
p2857
aS'may'
p2858
aS'remember'
p2859
aS'was'
p2860
ag62
aS'great'
p2861
aS'favourite'
p2862
aS'of'
p2863
aS'yours'
p2864
aS'and'
p2865
ag4
aS'recollect'
p2866
aS'you'
p2867
aS'once'
p2868
aS'remarked'
p2869
aS'that'
p2870
aS'if'
p2871
aS'you'
p2872
aS'were'
p2873
aS'in'
p2874
aS'an'
p2875
aS'illhumour'
p2876
aS'one'
p2877
aS'glance'
p2878
aS'from'
p2879
aS'justine'
p2880
aS'could'
p2881
aS'dissipate'
p2882
aS'it'
p2883
aS'for'
p2884
aS'the'
p2885
aS'same'
p2886
aS'reason'
p2887
aS'that'
p2888
aS'ariosto'
p2889
aS'gives'
p2890
aS'concerning'
p2891
aS'the'
p2892
aS'beauty'
p2893
aS'of'
p2894
aS'angelicashe'
p2895
aS'looked'
p2896
aS'so'
p2897
aS'frankhearted'
p2898
aS'and'
p2899
aS'happy'
p2900
aa(lp2901
S'my'
p2902
aS'aunt'
p2903
aS'conceived'
p2904
ag62
aS'great'
p2905
aS'attachment'
p2906
aS'for'
p2907
aS'her'
p2908
aS'by'
p2909
aS'which'
p2910
aS'she'
p2911
aS'was'
p2912
aS'induced'
p2913
aS'to'
p2914
aS'give'
p2915
aS'her'
p2916
aS'an'
p2917
aS'education'
p2918
aS'superior'
p2919
aS'to'
p2920
aS'that'
p2921
aS'which'
p2922
aS'she'
p2923
aS'had'
p2924
aS'at'
p2925
aS'first'
p2926
aS'intended'
p2927
aa(lp2928
S'this'
p2929
aS'benefit'
p2930
aS'was'
p2931
aS'fully'
p2932
aS'repaid'
p2933
aS'justine'
p2934
aS'was'
p2935
aS'the'
p2936
aS'most'
p2937
aS'grateful'
p2938
aS'little'
p2939
aS'creature'
p2940
aS'in'
p2941
aS'the'
p2942
aS'world'
p2943
ag4
aS'do'
p2944
aS'not'
p2945
aS'mean'
p2946
aS'that'
p2947
aS'she'
p2948
aS'made'
p2949
aS'any'
p2950
aS'professions'
p2951
ag4
aS'never'
p2952
aS'heard'
p2953
aS'one'
p2954
aS'pass'
p2955
aS'her'
p2956
aS'lips'
p2957
aS'but'
p2958
aS'you'
p2959
aS'could'
p2960
aS'see'
p2961
aS'by'
p2962
aS'her'
p2963
aS'eyes'
p2964
aS'that'
p2965
aS'she'
p2966
aS'almost'
p2967
aS'adored'
p2968
aS'her'
p2969
aS'protectress'
p2970
aa(lp2971
S'although'
p2972
aS'her'
p2973
aS'disposition'
p2974
aS'was'
p2975
aS'gay'
p2976
aS'and'
p2977
aS'in'
p2978
aS'many'
p2979
aS'respects'
p2980
aS'inconsiderate'
p2981
aS'yet'
p2982
aS'she'
p2983
aS'paid'
p2984
aS'the'
p2985
aS'greatest'
p2986
aS'attention'
p2987
aS'to'
p2988
aS'every'
p2989
aS'gesture'
p2990
aS'of'
p2991
aS'my'
p2992
aS'aunt'
p2993
aa(lp2994
S'she'
p2995
aS'thought'
p2996
aS'her'
p2997
aS'the'
p2998
aS'model'
p2999
aS'of'
p3000
aS'all'
p3001
aS'excellence'
p3002
aS'and'
p3003
aS'endeavoured'
p3004
aS'to'
p3005
aS'imitate'
p3006
aS'her'
p3007
aS'phraseology'
p3008
aS'and'
p3009
aS'manners'
p3010
aS'so'
p3011
aS'that'
p3012
aS'even'
p3013
aS'now'
p3014
aS'she'
p3015
aS'often'
p3016
aS'reminds'
p3017
aS'me'
p3018
aS'of'
p3019
aS'her'
p3020
aa(lp3021
S'when'
p3022
aS'my'
p3023
aS'dearest'
p3024
aS'aunt'
p3025
aS'died'
p3026
aS'every'
p3027
aS'one'
p3028
aS'was'
p3029
aS'too'
p3030
aS'much'
p3031
aS'occupied'
p3032
aS'in'
p3033
aS'their'
p3034
aS'own'
p3035
aS'grief'
p3036
aS'to'
p3037
aS'notice'
p3038
aS'poor'
p3039
aS'justine'
p3040
aS'who'
p3041
aS'had'
p3042
aS'attended'
p3043
aS'her'
p3044
aS'during'
p3045
aS'her'
p3046
aS'illness'
p3047
aS'with'
p3048
aS'the'
p3049
aS'most'
p3050
aS'anxious'
p3051
aS'affection'
p3052
aa(lp3053
S'poor'
p3054
aS'justine'
p3055
aS'was'
p3056
aS'very'
p3057
aS'ill'
p3058
aS'but'
p3059
aS'other'
p3060
aS'trials'
p3061
aS'were'
p3062
aS'reserved'
p3063
aS'for'
p3064
aS'her'
p3065
aa(lp3066
S'one'
p3067
aS'by'
p3068
aS'one'
p3069
aS'her'
p3070
aS'brothers'
p3071
aS'and'
p3072
aS'sister'
p3073
aS'died'
p3074
aS'and'
p3075
aS'her'
p3076
aS'mother'
p3077
aS'with'
p3078
aS'the'
p3079
aS'exception'
p3080
aS'of'
p3081
aS'her'
p3082
aS'neglected'
p3083
aS'daughter'
p3084
aS'was'
p3085
aS'left'
p3086
aS'childless'
p3087
aa(lp3088
S'the'
p3089
aS'conscience'
p3090
aS'of'
p3091
aS'the'
p3092
aS'woman'
p3093
aS'was'
p3094
aS'troubled'
p3095
aS'she'
p3096
aS'began'
p3097
aS'to'
p3098
aS'think'
p3099
aS'that'
p3100
aS'the'
p3101
aS'deaths'
p3102
aS'of'
p3103
aS'her'
p3104
aS'favourites'
p3105
aS'was'
p3106
ag62
aS'judgment'
p3107
aS'from'
p3108
aS'heaven'
p3109
aS'to'
p3110
aS'chastise'
p3111
aS'her'
p3112
aS'partiality'
p3113
aa(lp3114
S'she'
p3115
aS'was'
p3116
ag62
aS'roman'
p3117
aS'catholic'
p3118
aS'and'
p3119
ag4
aS'believe'
p3120
aS'her'
p3121
aS'confessor'
p3122
aS'confirmed'
p3123
aS'the'
p3124
aS'idea'
p3125
aS'which'
p3126
aS'she'
p3127
aS'had'
p3128
aS'conceived'
p3129
aa(lp3130
S'accordingly'
p3131
ag62
aS'few'
p3132
aS'months'
p3133
aS'after'
p3134
aS'your'
p3135
aS'departure'
p3136
aS'for'
p3137
aS'ingolstadt'
p3138
aS'justine'
p3139
aS'was'
p3140
aS'called'
p3141
aS'home'
p3142
aS'by'
p3143
aS'her'
p3144
aS'repentant'
p3145
aS'mother'
p3146
aa(lp3147
S'poor'
p3148
aS'girl'
p3149
aa(lp3150
S'she'
p3151
aS'wept'
p3152
aS'when'
p3153
aS'she'
p3154
aS'quitted'
p3155
aS'our'
p3156
aS'house'
p3157
aS'she'
p3158
aS'was'
p3159
aS'much'
p3160
aS'altered'
p3161
aS'since'
p3162
aS'the'
p3163
aS'death'
p3164
aS'of'
p3165
aS'my'
p3166
aS'aunt'
p3167
aS'grief'
p3168
aS'had'
p3169
aS'given'
p3170
aS'softness'
p3171
aS'and'
p3172
ag62
aS'winning'
p3173
aS'mildness'
p3174
aS'to'
p3175
aS'her'
p3176
aS'manners'
p3177
aS'which'
p3178
aS'had'
p3179
aS'before'
p3180
aS'been'
p3181
aS'remarkable'
p3182
aS'for'
p3183
aS'vivacity'
p3184
aa(lp3185
S'nor'
p3186
aS'was'
p3187
aS'her'
p3188
aS'residence'
p3189
aS'at'
p3190
aS'her'
p3191
aS'mothers'
p3192
aS'house'
p3193
aS'of'
p3194
ag62
aS'nature'
p3195
aS'to'
p3196
aS'restore'
p3197
aS'her'
p3198
aS'gaiety'
p3199
aa(lp3200
S'the'
p3201
aS'poor'
p3202
aS'woman'
p3203
aS'was'
p3204
aS'very'
p3205
aS'vacillating'
p3206
aS'in'
p3207
aS'her'
p3208
aS'repentance'
p3209
aa(lp3210
S'she'
p3211
aS'sometimes'
p3212
aS'begged'
p3213
aS'justine'
p3214
aS'to'
p3215
aS'forgive'
p3216
aS'her'
p3217
aS'unkindness'
p3218
aS'but'
p3219
aS'much'
p3220
aS'oftener'
p3221
aS'accused'
p3222
aS'her'
p3223
aS'of'
p3224
aS'having'
p3225
aS'caused'
p3226
aS'the'
p3227
aS'deaths'
p3228
aS'of'
p3229
aS'her'
p3230
aS'brothers'
p3231
aS'and'
p3232
aS'sister'
p3233
aa(lp3234
S'perpetual'
p3235
aS'fretting'
p3236
aS'at'
p3237
aS'length'
p3238
aS'threw'
p3239
aS'madame'
p3240
aS'moritz'
p3241
aS'into'
p3242
ag62
aS'decline'
p3243
aS'which'
p3244
aS'at'
p3245
aS'first'
p3246
aS'increased'
p3247
aS'her'
p3248
aS'irritability'
p3249
aS'but'
p3250
aS'she'
p3251
aS'is'
p3252
aS'now'
p3253
aS'at'
p3254
aS'peace'
p3255
aS'for'
p3256
aS'ever'
p3257
aa(lp3258
S'she'
p3259
aS'died'
p3260
aS'on'
p3261
aS'the'
p3262
aS'first'
p3263
aS'approach'
p3264
aS'of'
p3265
aS'cold'
p3266
aS'weather'
p3267
aS'at'
p3268
aS'the'
p3269
aS'beginning'
p3270
aS'of'
p3271
aS'this'
p3272
aS'last'
p3273
aS'winter'
p3274
aa(lp3275
S'justine'
p3276
aS'has'
p3277
aS'returned'
p3278
aS'to'
p3279
aS'us'
p3280
aS'and'
p3281
ag4
aS'assure'
p3282
aS'you'
p3283
ag4
aS'love'
p3284
aS'her'
p3285
aS'tenderly'
p3286
aa(lp3287
S'she'
p3288
aS'is'
p3289
aS'very'
p3290
aS'clever'
p3291
aS'and'
p3292
aS'gentle'
p3293
aS'and'
p3294
aS'extremely'
p3295
aS'pretty'
p3296
aS'as'
p3297
ag4
aS'mentioned'
p3298
aS'before'
p3299
aS'her'
p3300
aS'mien'
p3301
aS'and'
p3302
aS'her'
p3303
aS'expressions'
p3304
aS'continually'
p3305
aS'remind'
p3306
aS'me'
p3307
aS'of'
p3308
aS'my'
p3309
aS'dear'
p3310
aS'aunt'
p3311
aa(lp3312
g4
aS'must'
p3313
aS'say'
p3314
aS'also'
p3315
ag62
aS'few'
p3316
aS'words'
p3317
aS'to'
p3318
aS'you'
p3319
aS'my'
p3320
aS'dear'
p3321
aS'cousin'
p3322
aS'of'
p3323
aS'little'
p3324
aS'darling'
p3325
aS'william'
p3326
aa(lp3327
g4
aS'wish'
p3328
aS'you'
p3329
aS'could'
p3330
aS'see'
p3331
aS'him'
p3332
aS'he'
p3333
aS'is'
p3334
aS'very'
p3335
aS'tall'
p3336
aS'of'
p3337
aS'his'
p3338
aS'age'
p3339
aS'with'
p3340
aS'sweet'
p3341
aS'laughing'
p3342
aS'blue'
p3343
aS'eyes'
p3344
aS'dark'
p3345
aS'eyelashes'
p3346
aS'and'
p3347
aS'curling'
p3348
aS'hair'
p3349
aa(lp3350
S'when'
p3351
aS'he'
p3352
aS'smiles'
p3353
aS'two'
p3354
aS'little'
p3355
aS'dimples'
p3356
aS'appear'
p3357
aS'on'
p3358
aS'each'
p3359
aS'cheek'
p3360
aS'which'
p3361
aS'are'
p3362
aS'rosy'
p3363
aS'with'
p3364
aS'health'
p3365
aa(lp3366
S'he'
p3367
aS'has'
p3368
aS'already'
p3369
aS'had'
p3370
aS'one'
p3371
aS'or'
p3372
aS'two'
p3373
aS'little'
p3374
aS'wives'
p3375
aS'but'
p3376
aS'louisa'
p3377
aS'biron'
p3378
aS'is'
p3379
aS'his'
p3380
aS'favourite'
p3381
ag62
aS'pretty'
p3382
aS'little'
p3383
aS'girl'
p3384
aS'of'
p3385
aS'five'
p3386
aS'years'
p3387
aS'of'
p3388
aS'age'
p3389
aa(lp3390
S'now'
p3391
aS'dear'
p3392
aS'victor'
p3393
ag4
aS'dare'
p3394
aS'say'
p3395
aS'you'
p3396
aS'wish'
p3397
aS'to'
p3398
aS'be'
p3399
aS'indulged'
p3400
aS'in'
p3401
ag62
aS'little'
p3402
aS'gossip'
p3403
aS'concerning'
p3404
aS'the'
p3405
aS'good'
p3406
aS'people'
p3407
aS'of'
p3408
aS'geneva'
p3409
aa(lp3410
S'the'
p3411
aS'pretty'
p3412
aS'miss'
p3413
aS'mansfield'
p3414
aS'has'
p3415
aS'already'
p3416
aS'received'
p3417
aS'the'
p3418
aS'congratulatory'
p3419
aS'visits'
p3420
aS'on'
p3421
aS'her'
p3422
aS'approaching'
p3423
aS'marriage'
p3424
aS'with'
p3425
ag62
aS'young'
p3426
aS'englishman'
p3427
aS'john'
p3428
aS'melbourne'
p3429
aS'esq'
p3430
aa(lp3431
S'her'
p3432
aS'ugly'
p3433
aS'sister'
p3434
aS'manon'
p3435
aS'married'
p3436
ag2719
aa(lp3437
S'duvillard'
p3438
aS'the'
p3439
aS'rich'
p3440
aS'banker'
p3441
aS'last'
p3442
aS'autumn'
p3443
aa(lp3444
S'your'
p3445
aS'favourite'
p3446
aS'schoolfellow'
p3447
aS'louis'
p3448
aS'manoir'
p3449
aS'has'
p3450
aS'suffered'
p3451
aS'several'
p3452
aS'misfortunes'
p3453
aS'since'
p3454
aS'the'
p3455
aS'departure'
p3456
aS'of'
p3457
aS'clerval'
p3458
aS'from'
p3459
aS'geneva'
p3460
aa(lp3461
S'but'
p3462
aS'he'
p3463
aS'has'
p3464
aS'already'
p3465
aS'recovered'
p3466
aS'his'
p3467
aS'spirits'
p3468
aS'and'
p3469
aS'is'
p3470
aS'reported'
p3471
aS'to'
p3472
aS'be'
p3473
aS'on'
p3474
aS'the'
p3475
aS'point'
p3476
aS'of'
p3477
aS'marrying'
p3478
ag62
aS'very'
p3479
aS'lively'
p3480
aS'pretty'
p3481
aS'frenchwoman'
p3482
aS'madame'
p3483
aS'tavernier'
p3484
aa(lp3485
S'she'
p3486
aS'is'
p3487
ag62
aS'widow'
p3488
aS'and'
p3489
aS'much'
p3490
aS'older'
p3491
aS'than'
p3492
aS'manoir'
p3493
aS'but'
p3494
aS'she'
p3495
aS'is'
p3496
aS'very'
p3497
aS'much'
p3498
aS'admired'
p3499
aS'and'
p3500
ag62
aS'favourite'
p3501
aS'with'
p3502
aS'everybody'
p3503
aa(lp3504
g4
aS'have'
p3505
aS'written'
p3506
aS'myself'
p3507
aS'into'
p3508
aS'better'
p3509
aS'spirits'
p3510
aS'dear'
p3511
aS'cousin'
p3512
aS'but'
p3513
aS'my'
p3514
aS'anxiety'
p3515
aS'returns'
p3516
aS'upon'
p3517
aS'me'
p3518
aS'as'
p3519
ag4
aS'conclude'
p3520
aa(lp3521
S'write'
p3522
aS'dearest'
p3523
aS'victorone'
p3524
aS'lineone'
p3525
aS'word'
p3526
aS'will'
p3527
aS'be'
p3528
ag62
aS'blessing'
p3529
aS'to'
p3530
aS'us'
p3531
aa(lp3532
S'ten'
p3533
aS'thousand'
p3534
aS'thanks'
p3535
aS'to'
p3536
aS'henry'
p3537
aS'for'
p3538
aS'his'
p3539
aS'kindness'
p3540
aS'his'
p3541
aS'affection'
p3542
aS'and'
p3543
aS'his'
p3544
aS'many'
p3545
aS'letters'
p3546
aS'we'
p3547
aS'are'
p3548
aS'sincerely'
p3549
aS'grateful'
p3550
aa(lp3551
S'adieu'
p3552
aa(lp3553
S'my'
p3554
aS'cousin'
p3555
aS'take'
p3556
aS'care'
p3557
aS'of'
p3558
aS'yourself'
p3559
aS'and'
p3560
ag4
aS'entreat'
p3561
aS'you'
p3562
aS'write'
p3563
aa(lp3564
S'elizabeth'
p3565
aS'lavenza'
p3566
aa(lp3567
S'geneva'
p3568
aS'march'
p3569
aS'18th'
p3570
aS'17'
p3571
aa(lp3572
S'dear'
p3573
aS'dear'
p3574
aS'elizabeth'
p3575
aa(lp3576
g4
aS'exclaimed'
p3577
aS'when'
p3578
ag4
aS'had'
p3579
aS'read'
p3580
aS'her'
p3581
aS'letter'
p3582
ag4
aS'will'
p3583
aS'write'
p3584
aS'instantly'
p3585
aS'and'
p3586
aS'relieve'
p3587
aS'them'
p3588
aS'from'
p3589
aS'the'
p3590
aS'anxiety'
p3591
aS'they'
p3592
aS'must'
p3593
aS'feel'
p3594
aa(lp3595
g4
aS'wrote'
p3596
aS'and'
p3597
aS'this'
p3598
aS'exertion'
p3599
aS'greatly'
p3600
aS'fatigued'
p3601
aS'me'
p3602
aS'but'
p3603
aS'my'
p3604
aS'convalescence'
p3605
aS'had'
p3606
aS'commenced'
p3607
aS'and'
p3608
aS'proceeded'
p3609
aS'regularly'
p3610
aa(lp3611
S'in'
p3612
aS'another'
p3613
aS'fortnight'
p3614
ag4
aS'was'
p3615
aS'able'
p3616
aS'to'
p3617
aS'leave'
p3618
aS'my'
p3619
aS'chamber'
p3620
aa(lp3621
S'one'
p3622
aS'of'
p3623
aS'my'
p3624
aS'first'
p3625
aS'duties'
p3626
aS'on'
p3627
aS'my'
p3628
aS'recovery'
p3629
aS'was'
p3630
aS'to'
p3631
aS'introduce'
p3632
aS'clerval'
p3633
aS'to'
p3634
aS'the'
p3635
aS'several'
p3636
aS'professors'
p3637
aS'of'
p3638
aS'the'
p3639
aS'university'
p3640
aa(lp3641
S'in'
p3642
aS'doing'
p3643
aS'this'
p3644
ag4
aS'underwent'
p3645
ag62
aS'kind'
p3646
aS'of'
p3647
aS'rough'
p3648
aS'usage'
p3649
aS'ill'
p3650
aS'befitting'
p3651
aS'the'
p3652
aS'wounds'
p3653
aS'that'
p3654
aS'my'
p3655
aS'mind'
p3656
aS'had'
p3657
aS'sustained'
p3658
aa(lp3659
S'ever'
p3660
aS'since'
p3661
aS'the'
p3662
aS'fatal'
p3663
aS'night'
p3664
aS'the'
p3665
aS'end'
p3666
aS'of'
p3667
aS'my'
p3668
aS'labours'
p3669
aS'and'
p3670
aS'the'
p3671
aS'beginning'
p3672
aS'of'
p3673
aS'my'
p3674
aS'misfortunes'
p3675
ag4
aS'had'
p3676
aS'conceived'
p3677
ag62
aS'violent'
p3678
aS'antipathy'
p3679
aS'even'
p3680
aS'to'
p3681
aS'the'
p3682
aS'name'
p3683
aS'of'
p3684
aS'natural'
p3685
aS'philosophy'
p3686
aa(lp3687
S'when'
p3688
ag4
aS'was'
p3689
aS'otherwise'
p3690
aS'quite'
p3691
aS'restored'
p3692
aS'to'
p3693
aS'health'
p3694
aS'the'
p3695
aS'sight'
p3696
aS'of'
p3697
ag62
aS'chemical'
p3698
aS'instrument'
p3699
aS'would'
p3700
aS'renew'
p3701
aS'all'
p3702
aS'the'
p3703
aS'agony'
p3704
aS'of'
p3705
aS'my'
p3706
aS'nervous'
p3707
aS'symptoms'
p3708
aa(lp3709
S'henry'
p3710
aS'saw'
p3711
aS'this'
p3712
aS'and'
p3713
aS'had'
p3714
aS'removed'
p3715
aS'all'
p3716
aS'my'
p3717
aS'apparatus'
p3718
aS'from'
p3719
aS'my'
p3720
aS'view'
p3721
aa(lp3722
S'he'
p3723
aS'had'
p3724
aS'also'
p3725
aS'changed'
p3726
aS'my'
p3727
aS'apartment'
p3728
aS'for'
p3729
aS'he'
p3730
aS'perceived'
p3731
aS'that'
p3732
ag4
aS'had'
p3733
aS'acquired'
p3734
ag62
aS'dislike'
p3735
aS'for'
p3736
aS'the'
p3737
aS'room'
p3738
aS'which'
p3739
aS'had'
p3740
aS'previously'
p3741
aS'been'
p3742
aS'my'
p3743
aS'laboratory'
p3744
aa(lp3745
S'but'
p3746
aS'these'
p3747
aS'cares'
p3748
aS'of'
p3749
aS'clerval'
p3750
aS'were'
p3751
aS'made'
p3752
aS'of'
p3753
aS'no'
p3754
aS'avail'
p3755
aS'when'
p3756
ag4
aS'visited'
p3757
aS'the'
p3758
aS'professors'
p3759
aa(lp3760
g2719
aa(lp3761
S'waldman'
p3762
aS'inflicted'
p3763
aS'torture'
p3764
aS'when'
p3765
aS'he'
p3766
aS'praised'
p3767
aS'with'
p3768
aS'kindness'
p3769
aS'and'
p3770
aS'warmth'
p3771
aS'the'
p3772
aS'astonishing'
p3773
aS'progress'
p3774
ag4
aS'had'
p3775
aS'made'
p3776
aS'in'
p3777
aS'the'
p3778
aS'sciences'
p3779
aa(lp3780
S'he'
p3781
aS'soon'
p3782
aS'perceived'
p3783
aS'that'
p3784
ag4
aS'disliked'
p3785
aS'the'
p3786
aS'subject'
p3787
aS'but'
p3788
aS'not'
p3789
aS'guessing'
p3790
aS'the'
p3791
aS'real'
p3792
aS'cause'
p3793
aS'he'
p3794
aS'attributed'
p3795
aS'my'
p3796
aS'feelings'
p3797
aS'to'
p3798
aS'modesty'
p3799
aS'and'
p3800
aS'changed'
p3801
aS'the'
p3802
aS'subject'
p3803
aS'from'
p3804
aS'my'
p3805
aS'improvement'
p3806
aS'to'
p3807
aS'the'
p3808
aS'science'
p3809
aS'itself'
p3810
aS'with'
p3811
ag62
aS'desire'
p3812
aS'as'
p3813
ag4
aS'evidently'
p3814
aS'saw'
p3815
aS'of'
p3816
aS'drawing'
p3817
aS'me'
p3818
aS'out'
p3819
aa(lp3820
S'what'
p3821
aS'could'
p3822
ag4
aS'do'
p3823
aa(lp3824
S'he'
p3825
aS'meant'
p3826
aS'to'
p3827
aS'please'
p3828
aS'and'
p3829
aS'he'
p3830
aS'tormented'
p3831
aS'me'
p3832
aa(lp3833
g4
aS'felt'
p3834
aS'as'
p3835
aS'if'
p3836
aS'he'
p3837
aS'had'
p3838
aS'placed'
p3839
aS'carefully'
p3840
aS'one'
p3841
aS'by'
p3842
aS'one'
p3843
aS'in'
p3844
aS'my'
p3845
aS'view'
p3846
aS'those'
p3847
aS'instruments'
p3848
aS'which'
p3849
aS'were'
p3850
aS'to'
p3851
aS'be'
p3852
aS'afterwards'
p3853
aS'used'
p3854
aS'in'
p3855
aS'putting'
p3856
aS'me'
p3857
aS'to'
p3858
ag62
aS'slow'
p3859
aS'and'
p3860
aS'cruel'
p3861
aS'death'
p3862
aa(lp3863
g4
aS'writhed'
p3864
aS'under'
p3865
aS'his'
p3866
aS'words'
p3867
aS'yet'
p3868
aS'dared'
p3869
aS'not'
p3870
aS'exhibit'
p3871
aS'the'
p3872
aS'pain'
p3873
ag4
aS'felt'
p3874
aa(lp3875
S'clerval'
p3876
aS'whose'
p3877
aS'eyes'
p3878
aS'and'
p3879
aS'feelings'
p3880
aS'were'
p3881
aS'always'
p3882
aS'quick'
p3883
aS'in'
p3884
aS'discerning'
p3885
aS'the'
p3886
aS'sensations'
p3887
aS'of'
p3888
aS'others'
p3889
aS'declined'
p3890
aS'the'
p3891
aS'subject'
p3892
aS'alleging'
p3893
aS'in'
p3894
aS'excuse'
p3895
aS'his'
p3896
aS'total'
p3897
aS'ignorance'
p3898
aS'and'
p3899
aS'the'
p3900
aS'conversation'
p3901
aS'took'
p3902
ag62
aS'more'
p3903
aS'general'
p3904
aS'turn'
p3905
aa(lp3906
g4
aS'thanked'
p3907
aS'my'
p3908
aS'friend'
p3909
aS'from'
p3910
aS'my'
p3911
aS'heart'
p3912
aS'but'
p3913
ag4
aS'did'
p3914
aS'not'
p3915
aS'speak'
p3916
aa(lp3917
g4
aS'saw'
p3918
aS'plainly'
p3919
aS'that'
p3920
aS'he'
p3921
aS'was'
p3922
aS'surprised'
p3923
aS'but'
p3924
aS'he'
p3925
aS'never'
p3926
aS'attempted'
p3927
aS'to'
p3928
aS'draw'
p3929
aS'my'
p3930
aS'secret'
p3931
aS'from'
p3932
aS'me'
p3933
aS'and'
p3934
aS'although'
p3935
ag4
aS'loved'
p3936
aS'him'
p3937
aS'with'
p3938
ag62
aS'mixture'
p3939
aS'of'
p3940
aS'affection'
p3941
aS'and'
p3942
aS'reverence'
p3943
aS'that'
p3944
aS'knew'
p3945
aS'no'
p3946
aS'bounds'
p3947
aS'yet'
p3948
ag4
aS'could'
p3949
aS'never'
p3950
aS'persuade'
p3951
aS'myself'
p3952
aS'to'
p3953
aS'confide'
p3954
aS'to'
p3955
aS'him'
p3956
aS'that'
p3957
aS'event'
p3958
aS'which'
p3959
aS'was'
p3960
aS'so'
p3961
aS'often'
p3962
aS'present'
p3963
aS'to'
p3964
aS'my'
p3965
aS'recollection'
p3966
aS'but'
p3967
aS'which'
p3968
ag4
aS'feared'
p3969
aS'the'
p3970
aS'detail'
p3971
aS'to'
p3972
aS'another'
p3973
aS'would'
p3974
aS'only'
p3975
aS'impress'
p3976
aS'more'
p3977
aS'deeply'
p3978
aa(lp3979
g2719
aa(lp3980
S'krempe'
p3981
aS'was'
p3982
aS'not'
p3983
aS'equally'
p3984
aS'docile'
p3985
aS'and'
p3986
aS'in'
p3987
aS'my'
p3988
aS'condition'
p3989
aS'at'
p3990
aS'that'
p3991
aS'time'
p3992
aS'of'
p3993
aS'almost'
p3994
aS'insupportable'
p3995
aS'sensitiveness'
p3996
aS'his'
p3997
aS'harsh'
p3998
aS'blunt'
p3999
aS'encomiums'
p4000
aS'gave'
p4001
aS'me'
p4002
aS'even'
p4003
aS'more'
p4004
aS'pain'
p4005
aS'than'
p4006
aS'the'
p4007
aS'benevolent'
p4008
aS'approbation'
p4009
aS'of'
p4010
ag2719
aa(lp4011
S'waldman'
p4012
aa(lp4013
S'dn'
p4014
aS'the'
p4015
aS'fellow'
p4016
aa(lp4017
S'cried'
p4018
aS'he'
p4019
aS'why'
p4020
ag2719
aa(lp4021
S'clerval'
p4022
ag4
aS'assure'
p4023
aS'you'
p4024
aS'he'
p4025
aS'has'
p4026
aS'outstript'
p4027
aS'us'
p4028
aS'all'
p4029
aa(lp4030
S'ay'
p4031
aS'stare'
p4032
aS'if'
p4033
aS'you'
p4034
aS'please'
p4035
aS'but'
p4036
aS'it'
p4037
aS'is'
p4038
aS'nevertheless'
p4039
aS'true'
p4040
aa(lp4041
g62
aS'youngster'
p4042
aS'who'
p4043
aS'but'
p4044
ag62
aS'few'
p4045
aS'years'
p4046
aS'ago'
p4047
aS'believed'
p4048
aS'in'
p4049
aS'cornelius'
p4050
aS'agrippa'
p4051
aS'as'
p4052
aS'firmly'
p4053
aS'as'
p4054
aS'in'
p4055
aS'the'
p4056
aS'gospel'
p4057
aS'has'
p4058
aS'now'
p4059
aS'set'
p4060
aS'himself'
p4061
aS'at'
p4062
aS'the'
p4063
aS'head'
p4064
aS'of'
p4065
aS'the'
p4066
aS'university'
p4067
aS'and'
p4068
aS'if'
p4069
aS'he'
p4070
aS'is'
p4071
aS'not'
p4072
aS'soon'
p4073
aS'pulled'
p4074
aS'down'
p4075
aS'we'
p4076
aS'shall'
p4077
aS'all'
p4078
aS'be'
p4079
aS'out'
p4080
aS'of'
p4081
aS'countenance'
p4082
aa(lp4083
S'ay'
p4084
aS'ay'
p4085
aS'continued'
p4086
aS'he'
p4087
aS'observing'
p4088
aS'my'
p4089
aS'face'
p4090
aS'expressive'
p4091
aS'of'
p4092
aS'suffering'
p4093
ag2719
aa(lp4094
S'frankenstein'
p4095
aS'is'
p4096
aS'modest'
p4097
aS'an'
p4098
aS'excellent'
p4099
aS'quality'
p4100
aS'in'
p4101
ag62
aS'young'
p4102
aS'man'
p4103
aa(lp4104
S'young'
p4105
aS'men'
p4106
aS'should'
p4107
aS'be'
p4108
aS'diffident'
p4109
aS'of'
p4110
aS'themselves'
p4111
aS'you'
p4112
aS'know'
p4113
ag2719
aa(lp4114
S'clerval'
p4115
ag4
aS'was'
p4116
aS'myself'
p4117
aS'when'
p4118
aS'young'
p4119
aS'but'
p4120
aS'that'
p4121
aS'wears'
p4122
aS'out'
p4123
aS'in'
p4124
ag62
aS'very'
p4125
aS'short'
p4126
aS'time'
p4127
aa(lp4128
g2719
aa(lp4129
S'krempe'
p4130
aS'had'
p4131
aS'now'
p4132
aS'commenced'
p4133
aS'an'
p4134
aS'eulogy'
p4135
aS'on'
p4136
aS'himself'
p4137
aS'which'
p4138
aS'happily'
p4139
aS'turned'
p4140
aS'the'
p4141
aS'conversation'
p4142
aS'from'
p4143
ag62
aS'subject'
p4144
aS'that'
p4145
aS'was'
p4146
aS'so'
p4147
aS'annoying'
p4148
aS'to'
p4149
aS'me'
p4150
aa(lp4151
S'clerval'
p4152
aS'had'
p4153
aS'never'
p4154
aS'sympathised'
p4155
aS'in'
p4156
aS'my'
p4157
aS'tastes'
p4158
aS'for'
p4159
aS'natural'
p4160
aS'science'
p4161
aS'and'
p4162
aS'his'
p4163
aS'literary'
p4164
aS'pursuits'
p4165
aS'differed'
p4166
aS'wholly'
p4167
aS'from'
p4168
aS'those'
p4169
aS'which'
p4170
aS'had'
p4171
aS'occupied'
p4172
aS'me'
p4173
aa(lp4174
S'he'
p4175
aS'came'
p4176
aS'to'
p4177
aS'the'
p4178
aS'university'
p4179
aS'with'
p4180
aS'the'
p4181
aS'design'
p4182
aS'of'
p4183
aS'making'
p4184
aS'himself'
p4185
aS'complete'
p4186
aS'master'
p4187
aS'of'
p4188
aS'the'
p4189
aS'oriental'
p4190
aS'languages'
p4191
aS'as'
p4192
aS'thus'
p4193
aS'he'
p4194
aS'should'
p4195
aS'open'
p4196
ag62
aS'field'
p4197
aS'for'
p4198
aS'the'
p4199
aS'plan'
p4200
aS'of'
p4201
aS'life'
p4202
aS'he'
p4203
aS'had'
p4204
aS'marked'
p4205
aS'out'
p4206
aS'for'
p4207
aS'himself'
p4208
aa(lp4209
S'resolved'
p4210
aS'to'
p4211
aS'pursue'
p4212
aS'no'
p4213
aS'inglorious'
p4214
aS'career'
p4215
aS'he'
p4216
aS'turned'
p4217
aS'his'
p4218
aS'eyes'
p4219
aS'toward'
p4220
aS'the'
p4221
aS'east'
p4222
aS'as'
p4223
aS'affording'
p4224
aS'scope'
p4225
aS'for'
p4226
aS'his'
p4227
aS'spirit'
p4228
aS'of'
p4229
aS'enterprise'
p4230
aa(lp4231
S'the'
p4232
aS'persian'
p4233
aS'arabic'
p4234
aS'and'
p4235
aS'sanscrit'
p4236
aS'languages'
p4237
aS'engaged'
p4238
aS'his'
p4239
aS'attention'
p4240
aS'and'
p4241
ag4
aS'was'
p4242
aS'easily'
p4243
aS'induced'
p4244
aS'to'
p4245
aS'enter'
p4246
aS'on'
p4247
aS'the'
p4248
aS'same'
p4249
aS'studies'
p4250
aa(lp4251
S'idleness'
p4252
aS'had'
p4253
aS'ever'
p4254
aS'been'
p4255
aS'irksome'
p4256
aS'to'
p4257
aS'me'
p4258
aS'and'
p4259
aS'now'
p4260
aS'that'
p4261
ag4
aS'wished'
p4262
aS'to'
p4263
aS'fly'
p4264
aS'from'
p4265
aS'reflection'
p4266
aS'and'
p4267
aS'hated'
p4268
aS'my'
p4269
aS'former'
p4270
aS'studies'
p4271
ag4
aS'felt'
p4272
aS'great'
p4273
aS'relief'
p4274
aS'in'
p4275
aS'being'
p4276
aS'the'
p4277
aS'fellowpupil'
p4278
aS'with'
p4279
aS'my'
p4280
aS'friend'
p4281
aS'and'
p4282
aS'found'
p4283
aS'not'
p4284
aS'only'
p4285
aS'instruction'
p4286
aS'but'
p4287
aS'consolation'
p4288
aS'in'
p4289
aS'the'
p4290
aS'works'
p4291
aS'of'
p4292
aS'the'
p4293
aS'orientalists'
p4294
aa(lp4295
g4
aS'did'
p4296
aS'not'
p4297
aS'like'
p4298
aS'him'
p4299
aS'attempt'
p4300
ag62
aS'critical'
p4301
aS'knowledge'
p4302
aS'of'
p4303
aS'their'
p4304
aS'dialects'
p4305
aS'for'
p4306
ag4
aS'did'
p4307
aS'not'
p4308
aS'contemplate'
p4309
aS'making'
p4310
aS'any'
p4311
aS'other'
p4312
aS'use'
p4313
aS'of'
p4314
aS'them'
p4315
aS'than'
p4316
aS'temporary'
p4317
aS'amusement'
p4318
aa(lp4319
g4
aS'read'
p4320
aS'merely'
p4321
aS'to'
p4322
aS'understand'
p4323
aS'their'
p4324
aS'meaning'
p4325
aS'and'
p4326
aS'they'
p4327
aS'well'
p4328
aS'repaid'
p4329
aS'my'
p4330
aS'labours'
p4331
aa(lp4332
S'their'
p4333
aS'melancholy'
p4334
aS'is'
p4335
aS'soothing'
p4336
aS'and'
p4337
aS'their'
p4338
aS'joy'
p4339
aS'elevating'
p4340
aS'to'
p4341
ag62
aS'degree'
p4342
ag4
aS'never'
p4343
aS'experienced'
p4344
aS'in'
p4345
aS'studying'
p4346
aS'the'
p4347
aS'authors'
p4348
aS'of'
p4349
aS'any'
p4350
aS'other'
p4351
aS'country'
p4352
aa(lp4353
S'when'
p4354
aS'you'
p4355
aS'read'
p4356
aS'their'
p4357
aS'writings'
p4358
aS'life'
p4359
aS'appears'
p4360
aS'to'
p4361
aS'consist'
p4362
aS'in'
p4363
ag62
aS'warm'
p4364
aS'sun'
p4365
aS'and'
p4366
ag62
aS'garden'
p4367
aS'of'
p4368
aS'rosesin'
p4369
aS'the'
p4370
aS'smiles'
p4371
aS'and'
p4372
aS'frowns'
p4373
aS'of'
p4374
ag62
aS'fair'
p4375
aS'enemy'
p4376
aS'and'
p4377
aS'the'
p4378
aS'fire'
p4379
aS'that'
p4380
aS'consumes'
p4381
aS'your'
p4382
aS'own'
p4383
aS'heart'
p4384
aa(lp4385
S'how'
p4386
aS'different'
p4387
aS'from'
p4388
aS'the'
p4389
aS'manly'
p4390
aS'and'
p4391
aS'heroical'
p4392
aS'poetry'
p4393
aS'of'
p4394
aS'greece'
p4395
aS'and'
p4396
aS'rome'
p4397
aa(lp4398
S'summer'
p4399
aS'passed'
p4400
aS'away'
p4401
aS'in'
p4402
aS'these'
p4403
aS'occupations'
p4404
aS'and'
p4405
aS'my'
p4406
aS'return'
p4407
aS'to'
p4408
aS'geneva'
p4409
aS'was'
p4410
aS'fixed'
p4411
aS'for'
p4412
aS'the'
p4413
aS'latter'
p4414
aS'end'
p4415
aS'of'
p4416
aS'autumn'
p4417
aS'but'
p4418
aS'being'
p4419
aS'delayed'
p4420
aS'by'
p4421
aS'several'
p4422
aS'accidents'
p4423
aS'winter'
p4424
aS'and'
p4425
aS'snow'
p4426
aS'arrived'
p4427
aS'the'
p4428
aS'roads'
p4429
aS'were'
p4430
aS'deemed'
p4431
aS'impassable'
p4432
aS'and'
p4433
aS'my'
p4434
aS'journey'
p4435
aS'was'
p4436
aS'retarded'
p4437
aS'until'
p4438
aS'the'
p4439
aS'ensuing'
p4440
aS'spring'
p4441
aa(lp4442
g4
aS'felt'
p4443
aS'this'
p4444
aS'delay'
p4445
aS'very'
p4446
aS'bitterly'
p4447
aS'for'
p4448
ag4
aS'longed'
p4449
aS'to'
p4450
aS'see'
p4451
aS'my'
p4452
aS'native'
p4453
aS'town'
p4454
aS'and'
p4455
aS'my'
p4456
aS'beloved'
p4457
aS'friends'
p4458
aa(lp4459
S'my'
p4460
aS'return'
p4461
aS'had'
p4462
aS'only'
p4463
aS'been'
p4464
aS'delayed'
p4465
aS'so'
p4466
aS'long'
p4467
aS'from'
p4468
aS'an'
p4469
aS'unwillingness'
p4470
aS'to'
p4471
aS'leave'
p4472
aS'clerval'
p4473
aS'in'
p4474
ag62
aS'strange'
p4475
aS'place'
p4476
aS'before'
p4477
aS'he'
p4478
aS'had'
p4479
aS'become'
p4480
aS'acquainted'
p4481
aS'with'
p4482
aS'any'
p4483
aS'of'
p4484
aS'its'
p4485
aS'inhabitants'
p4486
aa(lp4487
S'the'
p4488
aS'winter'
p4489
aS'however'
p4490
aS'was'
p4491
aS'spent'
p4492
aS'cheerfully'
p4493
aS'and'
p4494
aS'although'
p4495
aS'the'
p4496
aS'spring'
p4497
aS'was'
p4498
aS'uncommonly'
p4499
aS'late'
p4500
aS'when'
p4501
aS'it'
p4502
aS'came'
p4503
aS'its'
p4504
aS'beauty'
p4505
aS'compensated'
p4506
aS'for'
p4507
aS'its'
p4508
aS'dilatoriness'
p4509
aa(lp4510
S'the'
p4511
aS'month'
p4512
aS'of'
p4513
aS'may'
p4514
aS'had'
p4515
aS'already'
p4516
aS'commenced'
p4517
aS'and'
p4518
ag4
aS'expected'
p4519
aS'the'
p4520
aS'letter'
p4521
aS'daily'
p4522
aS'which'
p4523
aS'was'
p4524
aS'to'
p4525
aS'fix'
p4526
aS'the'
p4527
aS'date'
p4528
aS'of'
p4529
aS'my'
p4530
aS'departure'
p4531
aS'when'
p4532
aS'henry'
p4533
aS'proposed'
p4534
ag62
aS'pedestrian'
p4535
aS'tour'
p4536
aS'in'
p4537
aS'the'
p4538
aS'environs'
p4539
aS'of'
p4540
aS'ingolstadt'
p4541
aS'that'
p4542
ag4
aS'might'
p4543
aS'bid'
p4544
ag62
aS'personal'
p4545
aS'farewell'
p4546
aS'to'
p4547
aS'the'
p4548
aS'country'
p4549
ag4
aS'had'
p4550
aS'so'
p4551
aS'long'
p4552
aS'inhabited'
p4553
aa(lp4554
g4
aS'acceded'
p4555
aS'with'
p4556
aS'pleasure'
p4557
aS'to'
p4558
aS'this'
p4559
aS'proposition'
p4560
ag4
aS'was'
p4561
aS'fond'
p4562
aS'of'
p4563
aS'exercise'
p4564
aS'and'
p4565
aS'clerval'
p4566
aS'had'
p4567
aS'always'
p4568
aS'been'
p4569
aS'my'
p4570
aS'favourite'
p4571
aS'companion'
p4572
aS'in'
p4573
aS'the'
p4574
aS'rambles'
p4575
aS'of'
p4576
aS'this'
p4577
aS'nature'
p4578
aS'that'
p4579
ag4
aS'had'
p4580
aS'taken'
p4581
aS'among'
p4582
aS'the'
p4583
aS'scenes'
p4584
aS'of'
p4585
aS'my'
p4586
aS'native'
p4587
aS'country'
p4588
aa(lp4589
S'we'
p4590
aS'passed'
p4591
ag62
aS'fortnight'
p4592
aS'in'
p4593
aS'these'
p4594
aS'perambulations'
p4595
aS'my'
p4596
aS'health'
p4597
aS'and'
p4598
aS'spirits'
p4599
aS'had'
p4600
aS'long'
p4601
aS'been'
p4602
aS'restored'
p4603
aS'and'
p4604
aS'they'
p4605
aS'gained'
p4606
aS'additional'
p4607
aS'strength'
p4608
aS'from'
p4609
aS'the'
p4610
aS'salubrious'
p4611
aS'air'
p4612
ag4
aS'breathed'
p4613
aS'the'
p4614
aS'natural'
p4615
aS'incidents'
p4616
aS'of'
p4617
aS'our'
p4618
aS'progress'
p4619
aS'and'
p4620
aS'the'
p4621
aS'conversation'
p4622
aS'of'
p4623
aS'my'
p4624
aS'friend'
p4625
aa(lp4626
S'study'
p4627
aS'had'
p4628
aS'before'
p4629
aS'secluded'
p4630
aS'me'
p4631
aS'from'
p4632
aS'the'
p4633
aS'intercourse'
p4634
aS'of'
p4635
aS'my'
p4636
aS'fellowcreatures'
p4637
aS'and'
p4638
aS'rendered'
p4639
aS'me'
p4640
aS'unsocial'
p4641
aS'but'
p4642
aS'clerval'
p4643
aS'called'
p4644
aS'forth'
p4645
aS'the'
p4646
aS'better'
p4647
aS'feelings'
p4648
aS'of'
p4649
aS'my'
p4650
aS'heart'
p4651
aS'he'
p4652
aS'again'
p4653
aS'taught'
p4654
aS'me'
p4655
aS'to'
p4656
aS'love'
p4657
aS'the'
p4658
aS'aspect'
p4659
aS'of'
p4660
aS'nature'
p4661
aS'and'
p4662
aS'the'
p4663
aS'cheerful'
p4664
aS'faces'
p4665
aS'of'
p4666
aS'children'
p4667
aa(lp4668
S'excellent'
p4669
aS'friend'
p4670
aa(lp4671
S'how'
p4672
aS'sincerely'
p4673
aS'did'
p4674
aS'you'
p4675
aS'love'
p4676
aS'me'
p4677
aS'and'
p4678
aS'endeavour'
p4679
aS'to'
p4680
aS'elevate'
p4681
aS'my'
p4682
aS'mind'
p4683
aS'until'
p4684
aS'it'
p4685
aS'was'
p4686
aS'on'
p4687
ag62
aS'level'
p4688
aS'with'
p4689
aS'your'
p4690
aS'own'
p4691
aa(lp4692
g62
aS'selfish'
p4693
aS'pursuit'
p4694
aS'had'
p4695
aS'cramped'
p4696
aS'and'
p4697
aS'narrowed'
p4698
aS'me'
p4699
aS'until'
p4700
aS'your'
p4701
aS'gentleness'
p4702
aS'and'
p4703
aS'affection'
p4704
aS'warmed'
p4705
aS'and'
p4706
aS'opened'
p4707
aS'my'
p4708
aS'senses'
p4709
ag4
aS'became'
p4710
aS'the'
p4711
aS'same'
p4712
aS'happy'
p4713
aS'creature'
p4714
aS'who'
p4715
ag62
aS'few'
p4716
aS'years'
p4717
aS'ago'
p4718
aS'loved'
p4719
aS'and'
p4720
aS'beloved'
p4721
aS'by'
p4722
aS'all'
p4723
aS'had'
p4724
aS'no'
p4725
aS'sorrow'
p4726
aS'or'
p4727
aS'care'
p4728
aa(lp4729
S'when'
p4730
aS'happy'
p4731
aS'inanimate'
p4732
aS'nature'
p4733
aS'had'
p4734
aS'the'
p4735
aS'power'
p4736
aS'of'
p4737
aS'bestowing'
p4738
aS'on'
p4739
aS'me'
p4740
aS'the'
p4741
aS'most'
p4742
aS'delightful'
p4743
aS'sensations'
p4744
aa(lp4745
g62
aS'serene'
p4746
aS'sky'
p4747
aS'and'
p4748
aS'verdant'
p4749
aS'fields'
p4750
aS'filled'
p4751
aS'me'
p4752
aS'with'
p4753
aS'ecstasy'
p4754
aa(lp4755
S'the'
p4756
aS'present'
p4757
aS'season'
p4758
aS'was'
p4759
aS'indeed'
p4760
aS'divine'
p4761
aS'the'
p4762
aS'flowers'
p4763
aS'of'
p4764
aS'spring'
p4765
aS'bloomed'
p4766
aS'in'
p4767
aS'the'
p4768
aS'hedges'
p4769
aS'while'
p4770
aS'those'
p4771
aS'of'
p4772
aS'summer'
p4773
aS'were'
p4774
aS'already'
p4775
aS'in'
p4776
aS'bud'
p4777
aa(lp4778
g4
aS'was'
p4779
aS'undisturbed'
p4780
aS'by'
p4781
aS'thoughts'
p4782
aS'which'
p4783
aS'during'
p4784
aS'the'
p4785
aS'preceding'
p4786
aS'year'
p4787
aS'had'
p4788
aS'pressed'
p4789
aS'upon'
p4790
aS'me'
p4791
aS'notwithstanding'
p4792
aS'my'
p4793
aS'endeavours'
p4794
aS'to'
p4795
aS'throw'
p4796
aS'them'
p4797
aS'off'
p4798
aS'with'
p4799
aS'an'
p4800
aS'invincible'
p4801
aS'burden'
p4802
aa(lp4803
S'henry'
p4804
aS'rejoiced'
p4805
aS'in'
p4806
aS'my'
p4807
aS'gaiety'
p4808
aS'and'
p4809
aS'sincerely'
p4810
aS'sympathised'
p4811
aS'in'
p4812
aS'my'
p4813
aS'feelings'
p4814
aS'he'
p4815
aS'exerted'
p4816
aS'himself'
p4817
aS'to'
p4818
aS'amuse'
p4819
aS'me'
p4820
aS'while'
p4821
aS'he'
p4822
aS'expressed'
p4823
aS'the'
p4824
aS'sensations'
p4825
aS'that'
p4826
aS'filled'
p4827
aS'his'
p4828
aS'soul'
p4829
aa(lp4830
S'the'
p4831
aS'resources'
p4832
aS'of'
p4833
aS'his'
p4834
aS'mind'
p4835
aS'on'
p4836
aS'this'
p4837
aS'occasion'
p4838
aS'were'
p4839
aS'truly'
p4840
aS'astonishing'
p4841
aS'his'
p4842
aS'conversation'
p4843
aS'was'
p4844
aS'full'
p4845
aS'of'
p4846
aS'imagination'
p4847
aS'and'
p4848
aS'very'
p4849
aS'often'
p4850
aS'in'
p4851
aS'imitation'
p4852
aS'of'
p4853
aS'the'
p4854
aS'persian'
p4855
aS'and'
p4856
aS'arabic'
p4857
aS'writers'
p4858
aS'he'
p4859
aS'invented'
p4860
aS'tales'
p4861
aS'of'
p4862
aS'wonderful'
p4863
aS'fancy'
p4864
aS'and'
p4865
aS'passion'
p4866
aa(lp4867
S'at'
p4868
aS'other'
p4869
aS'times'
p4870
aS'he'
p4871
aS'repeated'
p4872
aS'my'
p4873
aS'favourite'
p4874
aS'poems'
p4875
aS'or'
p4876
aS'drew'
p4877
aS'me'
p4878
aS'out'
p4879
aS'into'
p4880
aS'arguments'
p4881
aS'which'
p4882
aS'he'
p4883
aS'supported'
p4884
aS'with'
p4885
aS'great'
p4886
aS'ingenuity'
p4887
aa(lp4888
S'we'
p4889
aS'returned'
p4890
aS'to'
p4891
aS'our'
p4892
aS'college'
p4893
aS'on'
p4894
ag62
aS'sunday'
p4895
aS'afternoon'
p4896
aS'the'
p4897
aS'peasants'
p4898
aS'were'
p4899
aS'dancing'
p4900
aS'and'
p4901
aS'every'
p4902
aS'one'
p4903
aS'we'
p4904
aS'met'
p4905
aS'appeared'
p4906
aS'gay'
p4907
aS'and'
p4908
aS'happy'
p4909
aa(lp4910
S'my'
p4911
aS'own'
p4912
aS'spirits'
p4913
aS'were'
p4914
aS'high'
p4915
aS'and'
p4916
ag4
aS'bounded'
p4917
aS'along'
p4918
aS'with'
p4919
aS'feelings'
p4920
aS'of'
p4921
aS'unbridled'
p4922
aS'joy'
p4923
aS'and'
p4924
aS'hilarity'
p4925
aa(lp4926
S'chapter'
p4927
aS'vii'
p4928
aa(lp4929
S'on'
p4930
aS'my'
p4931
aS'return'
p4932
ag4
aS'found'
p4933
aS'the'
p4934
aS'following'
p4935
aS'letter'
p4936
aS'from'
p4937
aS'my'
p4938
aS'father'
p4939
aS'my'
p4940
aS'dear'
p4941
aS'victor'
p4942
aS'you'
p4943
aS'have'
p4944
aS'probably'
p4945
aS'waited'
p4946
aS'impatiently'
p4947
aS'for'
p4948
ag62
aS'letter'
p4949
aS'to'
p4950
aS'fix'
p4951
aS'the'
p4952
aS'date'
p4953
aS'of'
p4954
aS'your'
p4955
aS'return'
p4956
aS'to'
p4957
aS'us'
p4958
aS'and'
p4959
ag4
aS'was'
p4960
aS'at'
p4961
aS'first'
p4962
aS'tempted'
p4963
aS'to'
p4964
aS'write'
p4965
aS'only'
p4966
ag62
aS'few'
p4967
aS'lines'
p4968
aS'merely'
p4969
aS'mentioning'
p4970
aS'the'
p4971
aS'day'
p4972
aS'on'
p4973
aS'which'
p4974
ag4
aS'should'
p4975
aS'expect'
p4976
aS'you'
p4977
aa(lp4978
S'but'
p4979
aS'that'
p4980
aS'would'
p4981
aS'be'
p4982
ag62
aS'cruel'
p4983
aS'kindness'
p4984
aS'and'
p4985
ag4
aS'dare'
p4986
aS'not'
p4987
aS'do'
p4988
aS'it'
p4989
aa(lp4990
S'what'
p4991
aS'would'
p4992
aS'be'
p4993
aS'your'
p4994
aS'surprise'
p4995
aS'my'
p4996
aS'son'
p4997
aS'when'
p4998
aS'you'
p4999
aS'expected'
p5000
ag62
aS'happy'
p5001
aS'and'
p5002
aS'glad'
p5003
aS'welcome'
p5004
aS'to'
p5005
aS'behold'
p5006
aS'on'
p5007
aS'the'
p5008
aS'contrary'
p5009
aS'tears'
p5010
aS'and'
p5011
aS'wretchedness'
p5012
aa(lp5013
S'and'
p5014
aS'how'
p5015
aS'victor'
p5016
aS'can'
p5017
ag4
aS'relate'
p5018
aS'our'
p5019
aS'misfortune'
p5020
aa(lp5021
S'absence'
p5022
aS'cannot'
p5023
aS'have'
p5024
aS'rendered'
p5025
aS'you'
p5026
aS'callous'
p5027
aS'to'
p5028
aS'our'
p5029
aS'joys'
p5030
aS'and'
p5031
aS'griefs'
p5032
aS'and'
p5033
aS'how'
p5034
aS'shall'
p5035
ag4
aS'inflict'
p5036
aS'pain'
p5037
aS'on'
p5038
aS'my'
p5039
aS'long'
p5040
aS'absent'
p5041
aS'son'
p5042
aa(lp5043
g4
aS'wish'
p5044
aS'to'
p5045
aS'prepare'
p5046
aS'you'
p5047
aS'for'
p5048
aS'the'
p5049
aS'woful'
p5050
aS'news'
p5051
aS'but'
p5052
ag4
aS'know'
p5053
aS'it'
p5054
aS'is'
p5055
aS'impossible'
p5056
aS'even'
p5057
aS'now'
p5058
aS'your'
p5059
aS'eye'
p5060
aS'skims'
p5061
aS'over'
p5062
aS'the'
p5063
aS'page'
p5064
aS'to'
p5065
aS'seek'
p5066
aS'the'
p5067
aS'words'
p5068
aS'which'
p5069
aS'are'
p5070
aS'to'
p5071
aS'convey'
p5072
aS'to'
p5073
aS'you'
p5074
aS'the'
p5075
aS'horrible'
p5076
aS'tidings'
p5077
aa(lp5078
S'william'
p5079
aS'is'
p5080
aS'dead'
p5081
aa(lp5082
S'that'
p5083
aS'sweet'
p5084
aS'child'
p5085
aS'whose'
p5086
aS'smiles'
p5087
aS'delighted'
p5088
aS'and'
p5089
aS'warmed'
p5090
aS'my'
p5091
aS'heart'
p5092
aS'who'
p5093
aS'was'
p5094
aS'so'
p5095
aS'gentle'
p5096
aS'yet'
p5097
aS'so'
p5098
aS'gay'
p5099
aa(lp5100
S'victor'
p5101
aS'he'
p5102
aS'is'
p5103
aS'murdered'
p5104
aa(lp5105
g4
aS'will'
p5106
aS'not'
p5107
aS'attempt'
p5108
aS'to'
p5109
aS'console'
p5110
aS'you'
p5111
aS'but'
p5112
aS'will'
p5113
aS'simply'
p5114
aS'relate'
p5115
aS'the'
p5116
aS'circumstances'
p5117
aS'of'
p5118
aS'the'
p5119
aS'transaction'
p5120
aa(lp5121
S'last'
p5122
aS'thursday'
p5123
aS'may'
p5124
aS'7th'
p5125
ag4
aS'my'
p5126
aS'niece'
p5127
aS'and'
p5128
aS'your'
p5129
aS'two'
p5130
aS'brothers'
p5131
aS'went'
p5132
aS'to'
p5133
aS'walk'
p5134
aS'in'
p5135
aS'plainpalais'
p5136
aa(lp5137
S'the'
p5138
aS'evening'
p5139
aS'was'
p5140
aS'warm'
p5141
aS'and'
p5142
aS'serene'
p5143
aS'and'
p5144
aS'we'
p5145
aS'prolonged'
p5146
aS'our'
p5147
aS'walk'
p5148
aS'farther'
p5149
aS'than'
p5150
aS'usual'
p5151
aa(lp5152
S'it'
p5153
aS'was'
p5154
aS'already'
p5155
aS'dusk'
p5156
aS'before'
p5157
aS'we'
p5158
aS'thought'
p5159
aS'of'
p5160
aS'returning'
p5161
aS'and'
p5162
aS'then'
p5163
aS'we'
p5164
aS'discovered'
p5165
aS'that'
p5166
aS'william'
p5167
aS'and'
p5168
aS'ernest'
p5169
aS'who'
p5170
aS'had'
p5171
aS'gone'
p5172
aS'on'
p5173
aS'before'
p5174
aS'were'
p5175
aS'not'
p5176
aS'to'
p5177
aS'be'
p5178
aS'found'
p5179
aa(lp5180
S'we'
p5181
aS'accordingly'
p5182
aS'rested'
p5183
aS'on'
p5184
ag62
aS'seat'
p5185
aS'until'
p5186
aS'they'
p5187
aS'should'
p5188
aS'return'
p5189
aa(lp5190
S'presently'
p5191
aS'ernest'
p5192
aS'came'
p5193
aS'and'
p5194
aS'enquired'
p5195
aS'if'
p5196
aS'we'
p5197
aS'had'
p5198
aS'seen'
p5199
aS'his'
p5200
aS'brother'
p5201
aS'he'
p5202
aS'said'
p5203
aS'that'
p5204
aS'he'
p5205
aS'had'
p5206
aS'been'
p5207
aS'playing'
p5208
aS'with'
p5209
aS'him'
p5210
aS'that'
p5211
aS'william'
p5212
aS'had'
p5213
aS'run'
p5214
aS'away'
p5215
aS'to'
p5216
aS'hide'
p5217
aS'himself'
p5218
aS'and'
p5219
aS'that'
p5220
aS'he'
p5221
aS'vainly'
p5222
aS'sought'
p5223
aS'for'
p5224
aS'him'
p5225
aS'and'
p5226
aS'afterwards'
p5227
aS'waited'
p5228
aS'for'
p5229
aS'him'
p5230
ag62
aS'long'
p5231
aS'time'
p5232
aS'but'
p5233
aS'that'
p5234
aS'he'
p5235
aS'did'
p5236
aS'not'
p5237
aS'return'
p5238
aa(lp5239
S'this'
p5240
aS'account'
p5241
aS'rather'
p5242
aS'alarmed'
p5243
aS'us'
p5244
aS'and'
p5245
aS'we'
p5246
aS'continued'
p5247
aS'to'
p5248
aS'search'
p5249
aS'for'
p5250
aS'him'
p5251
aS'until'
p5252
aS'night'
p5253
aS'fell'
p5254
aS'when'
p5255
aS'elizabeth'
p5256
aS'conjectured'
p5257
aS'that'
p5258
aS'he'
p5259
aS'might'
p5260
aS'have'
p5261
aS'returned'
p5262
aS'to'
p5263
aS'the'
p5264
aS'house'
p5265
aa(lp5266
S'he'
p5267
aS'was'
p5268
aS'not'
p5269
aS'there'
p5270
aa(lp5271
S'we'
p5272
aS'returned'
p5273
aS'again'
p5274
aS'with'
p5275
aS'torches'
p5276
aS'for'
p5277
ag4
aS'could'
p5278
aS'not'
p5279
aS'rest'
p5280
aS'when'
p5281
ag4
aS'thought'
p5282
aS'that'
p5283
aS'my'
p5284
aS'sweet'
p5285
aS'boy'
p5286
aS'had'
p5287
aS'lost'
p5288
aS'himself'
p5289
aS'and'
p5290
aS'was'
p5291
aS'exposed'
p5292
aS'to'
p5293
aS'all'
p5294
aS'the'
p5295
aS'damps'
p5296
aS'and'
p5297
aS'dews'
p5298
aS'of'
p5299
aS'night'
p5300
aS'elizabeth'
p5301
aS'also'
p5302
aS'suffered'
p5303
aS'extreme'
p5304
aS'anguish'
p5305
aa(lp5306
S'about'
p5307
aS'five'
p5308
aS'in'
p5309
aS'the'
p5310
aS'morning'
p5311
ag4
aS'discovered'
p5312
aS'my'
p5313
aS'lovely'
p5314
aS'boy'
p5315
aS'whom'
p5316
aS'the'
p5317
aS'night'
p5318
aS'before'
p5319
ag4
aS'had'
p5320
aS'seen'
p5321
aS'blooming'
p5322
aS'and'
p5323
aS'active'
p5324
aS'in'
p5325
aS'health'
p5326
aS'stretched'
p5327
aS'on'
p5328
aS'the'
p5329
aS'grass'
p5330
aS'livid'
p5331
aS'and'
p5332
aS'motionless'
p5333
aS'the'
p5334
aS'print'
p5335
aS'of'
p5336
aS'the'
p5337
aS'murderers'
p5338
aS'finger'
p5339
aS'was'
p5340
aS'on'
p5341
aS'his'
p5342
aS'neck'
p5343
aa(lp5344
S'he'
p5345
aS'was'
p5346
aS'conveyed'
p5347
aS'home'
p5348
aS'and'
p5349
aS'the'
p5350
aS'anguish'
p5351
aS'that'
p5352
aS'was'
p5353
aS'visible'
p5354
aS'in'
p5355
aS'my'
p5356
aS'countenance'
p5357
aS'betrayed'
p5358
aS'the'
p5359
aS'secret'
p5360
aS'to'
p5361
aS'elizabeth'
p5362
aa(lp5363
S'she'
p5364
aS'was'
p5365
aS'very'
p5366
aS'earnest'
p5367
aS'to'
p5368
aS'see'
p5369
aS'the'
p5370
aS'corpse'
p5371
aa(lp5372
S'at'
p5373
aS'first'
p5374
ag4
aS'attempted'
p5375
aS'to'
p5376
aS'prevent'
p5377
aS'her'
p5378
aS'but'
p5379
aS'she'
p5380
aS'persisted'
p5381
aS'and'
p5382
aS'entering'
p5383
aS'the'
p5384
aS'room'
p5385
aS'where'
p5386
aS'it'
p5387
aS'lay'
p5388
aS'hastily'
p5389
aS'examined'
p5390
aS'the'
p5391
aS'neck'
p5392
aS'of'
p5393
aS'the'
p5394
aS'victim'
p5395
aS'and'
p5396
aS'clasping'
p5397
aS'her'
p5398
aS'hands'
p5399
aS'exclaimed'
p5400
aS'o'
p5401
aS'god'
p5402
aa(lp5403
g4
aS'have'
p5404
aS'murdered'
p5405
aS'my'
p5406
aS'darling'
p5407
aS'child'
p5408
aa(lp5409
S'she'
p5410
aS'fainted'
p5411
aS'and'
p5412
aS'was'
p5413
aS'restored'
p5414
aS'with'
p5415
aS'extreme'
p5416
aS'difficulty'
p5417
aa(lp5418
S'when'
p5419
aS'she'
p5420
aS'again'
p5421
aS'lived'
p5422
aS'it'
p5423
aS'was'
p5424
aS'only'
p5425
aS'to'
p5426
aS'weep'
p5427
aS'and'
p5428
aS'sigh'
p5429
aa(lp5430
S'she'
p5431
aS'told'
p5432
aS'me'
p5433
aS'that'
p5434
aS'that'
p5435
aS'same'
p5436
aS'evening'
p5437
aS'william'
p5438
aS'had'
p5439
aS'teased'
p5440
aS'her'
p5441
aS'to'
p5442
aS'let'
p5443
aS'him'
p5444
aS'wear'
p5445
ag62
aS'very'
p5446
aS'valuable'
p5447
aS'miniature'
p5448
aS'that'
p5449
aS'she'
p5450
aS'possessed'
p5451
aS'of'
p5452
aS'your'
p5453
aS'mother'
p5454
aa(lp5455
S'this'
p5456
aS'picture'
p5457
aS'is'
p5458
aS'gone'
p5459
aS'and'
p5460
aS'was'
p5461
aS'doubtless'
p5462
aS'the'
p5463
aS'temptation'
p5464
aS'which'
p5465
aS'urged'
p5466
aS'the'
p5467
aS'murderer'
p5468
aS'to'
p5469
aS'the'
p5470
aS'deed'
p5471
aa(lp5472
S'we'
p5473
aS'have'
p5474
aS'no'
p5475
aS'trace'
p5476
aS'of'
p5477
aS'him'
p5478
aS'at'
p5479
aS'present'
p5480
aS'although'
p5481
aS'our'
p5482
aS'exertions'
p5483
aS'to'
p5484
aS'discover'
p5485
aS'him'
p5486
aS'are'
p5487
aS'unremitted'
p5488
aS'but'
p5489
aS'they'
p5490
aS'will'
p5491
aS'not'
p5492
aS'restore'
p5493
aS'my'
p5494
aS'beloved'
p5495
aS'william'
p5496
aa(lp5497
S'come'
p5498
aS'dearest'
p5499
aS'victor'
p5500
aS'you'
p5501
aS'alone'
p5502
aS'can'
p5503
aS'console'
p5504
aS'elizabeth'
p5505
aa(lp5506
S'she'
p5507
aS'weeps'
p5508
aS'continually'
p5509
aS'and'
p5510
aS'accuses'
p5511
aS'herself'
p5512
aS'unjustly'
p5513
aS'as'
p5514
aS'the'
p5515
aS'cause'
p5516
aS'of'
p5517
aS'his'
p5518
aS'death'
p5519
aS'her'
p5520
aS'words'
p5521
aS'pierce'
p5522
aS'my'
p5523
aS'heart'
p5524
aa(lp5525
S'we'
p5526
aS'are'
p5527
aS'all'
p5528
aS'unhappy'
p5529
aS'but'
p5530
aS'will'
p5531
aS'not'
p5532
aS'that'
p5533
aS'be'
p5534
aS'an'
p5535
aS'additional'
p5536
aS'motive'
p5537
aS'for'
p5538
aS'you'
p5539
aS'my'
p5540
aS'son'
p5541
aS'to'
p5542
aS'return'
p5543
aS'and'
p5544
aS'be'
p5545
aS'our'
p5546
aS'comforter'
p5547
aa(lp5548
S'your'
p5549
aS'dear'
p5550
aS'mother'
p5551
aa(lp5552
S'alas'
p5553
aS'victor'
p5554
aa(lp5555
g4
aS'now'
p5556
aS'say'
p5557
aS'thank'
p5558
aS'god'
p5559
aS'she'
p5560
aS'did'
p5561
aS'not'
p5562
aS'live'
p5563
aS'to'
p5564
aS'witness'
p5565
aS'the'
p5566
aS'cruel'
p5567
aS'miserable'
p5568
aS'death'
p5569
aS'of'
p5570
aS'her'
p5571
aS'youngest'
p5572
aS'darling'
p5573
aa(lp5574
S'come'
p5575
aS'victor'
p5576
aS'not'
p5577
aS'brooding'
p5578
aS'thoughts'
p5579
aS'of'
p5580
aS'vengeance'
p5581
aS'against'
p5582
aS'the'
p5583
aS'assassin'
p5584
aS'but'
p5585
aS'with'
p5586
aS'feelings'
p5587
aS'of'
p5588
aS'peace'
p5589
aS'and'
p5590
aS'gentleness'
p5591
aS'that'
p5592
aS'will'
p5593
aS'heal'
p5594
aS'instead'
p5595
aS'of'
p5596
aS'festering'
p5597
aS'the'
p5598
aS'wounds'
p5599
aS'of'
p5600
aS'our'
p5601
aS'minds'
p5602
aa(lp5603
S'enter'
p5604
aS'the'
p5605
aS'house'
p5606
aS'of'
p5607
aS'mourning'
p5608
aS'my'
p5609
aS'friend'
p5610
aS'but'
p5611
aS'with'
p5612
aS'kindness'
p5613
aS'and'
p5614
aS'affection'
p5615
aS'for'
p5616
aS'those'
p5617
aS'who'
p5618
aS'love'
p5619
aS'you'
p5620
aS'and'
p5621
aS'not'
p5622
aS'with'
p5623
aS'hatred'
p5624
aS'for'
p5625
aS'your'
p5626
aS'enemies'
p5627
aa(lp5628
S'your'
p5629
aS'affectionate'
p5630
aS'and'
p5631
aS'afflicted'
p5632
aS'father'
p5633
aS'alphonse'
p5634
aS'frankenstein'
p5635
aa(lp5636
S'geneva'
p5637
aS'may'
p5638
aS'12th'
p5639
aS'17'
p5640
aa(lp5641
S'clerval'
p5642
aS'who'
p5643
aS'had'
p5644
aS'watched'
p5645
aS'my'
p5646
aS'countenance'
p5647
aS'as'
p5648
ag4
aS'read'
p5649
aS'this'
p5650
aS'letter'
p5651
aS'was'
p5652
aS'surprised'
p5653
aS'to'
p5654
aS'observe'
p5655
aS'the'
p5656
aS'despair'
p5657
aS'that'
p5658
aS'succeeded'
p5659
aS'to'
p5660
aS'the'
p5661
aS'joy'
p5662
ag4
aS'at'
p5663
aS'first'
p5664
aS'expressed'
p5665
aS'on'
p5666
aS'receiving'
p5667
aS'news'
p5668
aS'from'
p5669
aS'my'
p5670
aS'friends'
p5671
aa(lp5672
g4
aS'threw'
p5673
aS'the'
p5674
aS'letter'
p5675
aS'on'
p5676
aS'the'
p5677
aS'table'
p5678
aS'and'
p5679
aS'covered'
p5680
aS'my'
p5681
aS'face'
p5682
aS'with'
p5683
aS'my'
p5684
aS'hands'
p5685
aa(lp5686
S'my'
p5687
aS'dear'
p5688
aS'frankenstein'
p5689
aS'exclaimed'
p5690
aS'henry'
p5691
aS'when'
p5692
aS'he'
p5693
aS'perceived'
p5694
aS'me'
p5695
aS'weep'
p5696
aS'with'
p5697
aS'bitterness'
p5698
aS'are'
p5699
aS'you'
p5700
aS'always'
p5701
aS'to'
p5702
aS'be'
p5703
aS'unhappy'
p5704
aa(lp5705
S'my'
p5706
aS'dear'
p5707
aS'friend'
p5708
aS'what'
p5709
aS'has'
p5710
aS'happened'
p5711
aa(lp5712
g4
aS'motioned'
p5713
aS'to'
p5714
aS'him'
p5715
aS'to'
p5716
aS'take'
p5717
aS'up'
p5718
aS'the'
p5719
aS'letter'
p5720
aS'while'
p5721
ag4
aS'walked'
p5722
aS'up'
p5723
aS'and'
p5724
aS'down'
p5725
aS'the'
p5726
aS'room'
p5727
aS'in'
p5728
aS'the'
p5729
aS'extremest'
p5730
aS'agitation'
p5731
aa(lp5732
S'tears'
p5733
aS'also'
p5734
aS'gushed'
p5735
aS'from'
p5736
aS'the'
p5737
aS'eyes'
p5738
aS'of'
p5739
aS'clerval'
p5740
aS'as'
p5741
aS'he'
p5742
aS'read'
p5743
aS'the'
p5744
aS'account'
p5745
aS'of'
p5746
aS'my'
p5747
aS'misfortune'
p5748
aa(lp5749
g4
aS'can'
p5750
aS'offer'
p5751
aS'you'
p5752
aS'no'
p5753
aS'consolation'
p5754
aS'my'
p5755
aS'friend'
p5756
aS'said'
p5757
aS'he'
p5758
aS'your'
p5759
aS'disaster'
p5760
aS'is'
p5761
aS'irreparable'
p5762
aa(lp5763
S'what'
p5764
aS'do'
p5765
aS'you'
p5766
aS'intend'
p5767
aS'to'
p5768
aS'do'
p5769
aa(lp5770
S'to'
p5771
aS'go'
p5772
aS'instantly'
p5773
aS'to'
p5774
aS'geneva'
p5775
aS'come'
p5776
aS'with'
p5777
aS'me'
p5778
aS'henry'
p5779
aS'to'
p5780
aS'order'
p5781
aS'the'
p5782
aS'horses'
p5783
aa(lp5784
S'during'
p5785
aS'our'
p5786
aS'walk'
p5787
aS'clerval'
p5788
aS'endeavoured'
p5789
aS'to'
p5790
aS'say'
p5791
ag62
aS'few'
p5792
aS'words'
p5793
aS'of'
p5794
aS'consolation'
p5795
aS'he'
p5796
aS'could'
p5797
aS'only'
p5798
aS'express'
p5799
aS'his'
p5800
aS'heartfelt'
p5801
aS'sympathy'
p5802
aa(lp5803
S'poor'
p5804
aS'william'
p5805
aa(lp5806
S'said'
p5807
aS'he'
p5808
aS'dear'
p5809
aS'lovely'
p5810
aS'child'
p5811
aS'he'
p5812
aS'now'
p5813
aS'sleeps'
p5814
aS'with'
p5815
aS'his'
p5816
aS'angel'
p5817
aS'mother'
p5818
aa(lp5819
S'who'
p5820
aS'that'
p5821
aS'had'
p5822
aS'seen'
p5823
aS'him'
p5824
aS'bright'
p5825
aS'and'
p5826
aS'joyous'
p5827
aS'in'
p5828
aS'his'
p5829
aS'young'
p5830
aS'beauty'
p5831
aS'but'
p5832
aS'must'
p5833
aS'weep'
p5834
aS'over'
p5835
aS'his'
p5836
aS'untimely'
p5837
aS'loss'
p5838
aa(lp5839
S'to'
p5840
aS'die'
p5841
aS'so'
p5842
aS'miserably'
p5843
aS'to'
p5844
aS'feel'
p5845
aS'the'
p5846
aS'murderers'
p5847
aS'grasp'
p5848
aa(lp5849
S'how'
p5850
aS'much'
p5851
aS'more'
p5852
ag62
aS'murderer'
p5853
aS'that'
p5854
aS'could'
p5855
aS'destroy'
p5856
aS'such'
p5857
aS'radiant'
p5858
aS'innocence'
p5859
aa(lp5860
S'poor'
p5861
aS'little'
p5862
aS'fellow'
p5863
aa(lp5864
S'one'
p5865
aS'only'
p5866
aS'consolation'
p5867
aS'have'
p5868
aS'we'
p5869
aS'his'
p5870
aS'friends'
p5871
aS'mourn'
p5872
aS'and'
p5873
aS'weep'
p5874
aS'but'
p5875
aS'he'
p5876
aS'is'
p5877
aS'at'
p5878
aS'rest'
p5879
aa(lp5880
S'the'
p5881
aS'pang'
p5882
aS'is'
p5883
aS'over'
p5884
aS'his'
p5885
aS'sufferings'
p5886
aS'are'
p5887
aS'at'
p5888
aS'an'
p5889
aS'end'
p5890
aS'for'
p5891
aS'ever'
p5892
aa(lp5893
g62
aS'sod'
p5894
aS'covers'
p5895
aS'his'
p5896
aS'gentle'
p5897
aS'form'
p5898
aS'and'
p5899
aS'he'
p5900
aS'knows'
p5901
aS'no'
p5902
aS'pain'
p5903
aa(lp5904
S'he'
p5905
aS'can'
p5906
aS'no'
p5907
aS'longer'
p5908
aS'be'
p5909
ag62
aS'subject'
p5910
aS'for'
p5911
aS'pity'
p5912
aS'we'
p5913
aS'must'
p5914
aS'reserve'
p5915
aS'that'
p5916
aS'for'
p5917
aS'his'
p5918
aS'miserable'
p5919
aS'survivors'
p5920
aa(lp5921
S'clerval'
p5922
aS'spoke'
p5923
aS'thus'
p5924
aS'as'
p5925
aS'we'
p5926
aS'hurried'
p5927
aS'through'
p5928
aS'the'
p5929
aS'streets'
p5930
aS'the'
p5931
aS'words'
p5932
aS'impressed'
p5933
aS'themselves'
p5934
aS'on'
p5935
aS'my'
p5936
aS'mind'
p5937
aS'and'
p5938
ag4
aS'remembered'
p5939
aS'them'
p5940
aS'afterwards'
p5941
aS'in'
p5942
aS'solitude'
p5943
aa(lp5944
S'but'
p5945
aS'now'
p5946
aS'as'
p5947
aS'soon'
p5948
aS'as'
p5949
aS'the'
p5950
aS'horses'
p5951
aS'arrived'
p5952
ag4
aS'hurried'
p5953
aS'into'
p5954
ag62
aS'cabriolet'
p5955
aS'and'
p5956
aS'bade'
p5957
aS'farewell'
p5958
aS'to'
p5959
aS'my'
p5960
aS'friend'
p5961
aa(lp5962
S'my'
p5963
aS'journey'
p5964
aS'was'
p5965
aS'very'
p5966
aS'melancholy'
p5967
aa(lp5968
S'at'
p5969
aS'first'
p5970
ag4
aS'wished'
p5971
aS'to'
p5972
aS'hurry'
p5973
aS'on'
p5974
aS'for'
p5975
ag4
aS'longed'
p5976
aS'to'
p5977
aS'console'
p5978
aS'and'
p5979
aS'sympathise'
p5980
aS'with'
p5981
aS'my'
p5982
aS'loved'
p5983
aS'and'
p5984
aS'sorrowing'
p5985
aS'friends'
p5986
aS'but'
p5987
aS'when'
p5988
ag4
aS'drew'
p5989
aS'near'
p5990
aS'my'
p5991
aS'native'
p5992
aS'town'
p5993
ag4
aS'slackened'
p5994
aS'my'
p5995
aS'progress'
p5996
aa(lp5997
g4
aS'could'
p5998
aS'hardly'
p5999
aS'sustain'
p6000
aS'the'
p6001
aS'multitude'
p6002
aS'of'
p6003
aS'feelings'
p6004
aS'that'
p6005
aS'crowded'
p6006
aS'into'
p6007
aS'my'
p6008
aS'mind'
p6009
aa(lp6010
g4
aS'passed'
p6011
aS'through'
p6012
aS'scenes'
p6013
aS'familiar'
p6014
aS'to'
p6015
aS'my'
p6016
aS'youth'
p6017
aS'but'
p6018
aS'which'
p6019
ag4
aS'had'
p6020
aS'not'
p6021
aS'seen'
p6022
aS'for'
p6023
aS'nearly'
p6024
aS'six'
p6025
aS'years'
p6026
aa(lp6027
S'how'
p6028
aS'altered'
p6029
aS'every'
p6030
aS'thing'
p6031
aS'might'
p6032
aS'be'
p6033
aS'during'
p6034
aS'that'
p6035
aS'time'
p6036
aa(lp6037
S'one'
p6038
aS'sudden'
p6039
aS'and'
p6040
aS'desolating'
p6041
aS'change'
p6042
aS'had'
p6043
aS'taken'
p6044
aS'place'
p6045
aS'but'
p6046
ag62
aS'thousand'
p6047
aS'little'
p6048
aS'circumstances'
p6049
aS'might'
p6050
aS'have'
p6051
aS'by'
p6052
aS'degrees'
p6053
aS'worked'
p6054
aS'other'
p6055
aS'alterations'
p6056
aS'which'
p6057
aS'although'
p6058
aS'they'
p6059
aS'were'
p6060
aS'done'
p6061
aS'more'
p6062
aS'tranquilly'
p6063
aS'might'
p6064
aS'not'
p6065
aS'be'
p6066
aS'the'
p6067
aS'less'
p6068
aS'decisive'
p6069
aa(lp6070
S'fear'
p6071
aS'overcame'
p6072
aS'me'
p6073
ag4
aS'dared'
p6074
aS'not'
p6075
aS'advance'
p6076
aS'dreading'
p6077
ag62
aS'thousand'
p6078
aS'nameless'
p6079
aS'evils'
p6080
aS'that'
p6081
aS'made'
p6082
aS'me'
p6083
aS'tremble'
p6084
aS'although'
p6085
ag4
aS'was'
p6086
aS'unable'
p6087
aS'to'
p6088
aS'define'
p6089
aS'them'
p6090
aa(lp6091
g4
aS'remained'
p6092
aS'two'
p6093
aS'days'
p6094
aS'at'
p6095
aS'lausanne'
p6096
aS'in'
p6097
aS'this'
p6098
aS'painful'
p6099
aS'state'
p6100
aS'of'
p6101
aS'mind'
p6102
aa(lp6103
g4
aS'contemplated'
p6104
aS'the'
p6105
aS'lake'
p6106
aS'the'
p6107
aS'waters'
p6108
aS'were'
p6109
aS'placid'
p6110
aS'all'
p6111
aS'around'
p6112
aS'was'
p6113
aS'calm'
p6114
aS'and'
p6115
aS'the'
p6116
aS'snowy'
p6117
aS'mountains'
p6118
aS'the'
p6119
aS'palaces'
p6120
aS'of'
p6121
aS'nature'
p6122
aS'were'
p6123
aS'not'
p6124
aS'changed'
p6125
aa(lp6126
S'by'
p6127
aS'degrees'
p6128
aS'the'
p6129
aS'calm'
p6130
aS'and'
p6131
aS'heavenly'
p6132
aS'scene'
p6133
aS'restored'
p6134
aS'me'
p6135
aS'and'
p6136
ag4
aS'continued'
p6137
aS'my'
p6138
aS'journey'
p6139
aS'towards'
p6140
aS'geneva'
p6141
aa(lp6142
S'the'
p6143
aS'road'
p6144
aS'ran'
p6145
aS'by'
p6146
aS'the'
p6147
aS'side'
p6148
aS'of'
p6149
aS'the'
p6150
aS'lake'
p6151
aS'which'
p6152
aS'became'
p6153
aS'narrower'
p6154
aS'as'
p6155
ag4
aS'approached'
p6156
aS'my'
p6157
aS'native'
p6158
aS'town'
p6159
aa(lp6160
g4
aS'discovered'
p6161
aS'more'
p6162
aS'distinctly'
p6163
aS'the'
p6164
aS'black'
p6165
aS'sides'
p6166
aS'of'
p6167
aS'jura'
p6168
aS'and'
p6169
aS'the'
p6170
aS'bright'
p6171
aS'summit'
p6172
aS'of'
p6173
aS'mont'
p6174
aS'blanc'
p6175
aa(lp6176
g4
aS'wept'
p6177
aS'like'
p6178
ag62
aS'child'
p6179
aa(lp6180
S'dear'
p6181
aS'mountains'
p6182
aa(lp6183
S'my'
p6184
aS'own'
p6185
aS'beautiful'
p6186
aS'lake'
p6187
aa(lp6188
S'how'
p6189
aS'do'
p6190
aS'you'
p6191
aS'welcome'
p6192
aS'your'
p6193
aS'wanderer'
p6194
aa(lp6195
S'your'
p6196
aS'summits'
p6197
aS'are'
p6198
aS'clear'
p6199
aS'the'
p6200
aS'sky'
p6201
aS'and'
p6202
aS'lake'
p6203
aS'are'
p6204
aS'blue'
p6205
aS'and'
p6206
aS'placid'
p6207
aa(lp6208
S'is'
p6209
aS'this'
p6210
aS'to'
p6211
aS'prognosticate'
p6212
aS'peace'
p6213
aS'or'
p6214
aS'to'
p6215
aS'mock'
p6216
aS'at'
p6217
aS'my'
p6218
aS'unhappiness'
p6219
aa(lp6220
g4
aS'fear'
p6221
aS'my'
p6222
aS'friend'
p6223
aS'that'
p6224
ag4
aS'shall'
p6225
aS'render'
p6226
aS'myself'
p6227
aS'tedious'
p6228
aS'by'
p6229
aS'dwelling'
p6230
aS'on'
p6231
aS'these'
p6232
aS'preliminary'
p6233
aS'circumstances'
p6234
aS'but'
p6235
aS'they'
p6236
aS'were'
p6237
aS'days'
p6238
aS'of'
p6239
aS'comparative'
p6240
aS'happiness'
p6241
aS'and'
p6242
ag4
aS'think'
p6243
aS'of'
p6244
aS'them'
p6245
aS'with'
p6246
aS'pleasure'
p6247
aa(lp6248
S'my'
p6249
aS'country'
p6250
aS'my'
p6251
aS'beloved'
p6252
aS'country'
p6253
aa(lp6254
S'who'
p6255
aS'but'
p6256
ag62
aS'native'
p6257
aS'can'
p6258
aS'tell'
p6259
aS'the'
p6260
aS'delight'
p6261
ag4
aS'took'
p6262
aS'in'
p6263
aS'again'
p6264
aS'beholding'
p6265
aS'thy'
p6266
aS'streams'
p6267
aS'thy'
p6268
aS'mountains'
p6269
aS'and'
p6270
aS'more'
p6271
aS'than'
p6272
aS'all'
p6273
aS'thy'
p6274
aS'lovely'
p6275
aS'lake'
p6276
aa(lp6277
S'yet'
p6278
aS'as'
p6279
ag4
aS'drew'
p6280
aS'nearer'
p6281
aS'home'
p6282
aS'grief'
p6283
aS'and'
p6284
aS'fear'
p6285
aS'again'
p6286
aS'overcame'
p6287
aS'me'
p6288
aa(lp6289
S'night'
p6290
aS'also'
p6291
aS'closed'
p6292
aS'around'
p6293
aS'and'
p6294
aS'when'
p6295
ag4
aS'could'
p6296
aS'hardly'
p6297
aS'see'
p6298
aS'the'
p6299
aS'dark'
p6300
aS'mountains'
p6301
ag4
aS'felt'
p6302
aS'still'
p6303
aS'more'
p6304
aS'gloomily'
p6305
aa(lp6306
S'the'
p6307
aS'picture'
p6308
aS'appeared'
p6309
ag62
aS'vast'
p6310
aS'and'
p6311
aS'dim'
p6312
aS'scene'
p6313
aS'of'
p6314
aS'evil'
p6315
aS'and'
p6316
ag4
aS'foresaw'
p6317
aS'obscurely'
p6318
aS'that'
p6319
ag4
aS'was'
p6320
aS'destined'
p6321
aS'to'
p6322
aS'become'
p6323
aS'the'
p6324
aS'most'
p6325
aS'wretched'
p6326
aS'of'
p6327
aS'human'
p6328
aS'beings'
p6329
aa(lp6330
S'alas'
p6331
aa(lp6332
g4
aS'prophesied'
p6333
aS'truly'
p6334
aS'and'
p6335
aS'failed'
p6336
aS'only'
p6337
aS'in'
p6338
aS'one'
p6339
aS'single'
p6340
aS'circumstance'
p6341
aS'that'
p6342
aS'in'
p6343
aS'all'
p6344
aS'the'
p6345
aS'misery'
p6346
ag4
aS'imagined'
p6347
aS'and'
p6348
aS'dreaded'
p6349
ag4
aS'did'
p6350
aS'not'
p6351
aS'conceive'
p6352
aS'the'
p6353
aS'hundredth'
p6354
aS'part'
p6355
aS'of'
p6356
aS'the'
p6357
aS'anguish'
p6358
ag4
aS'was'
p6359
aS'destined'
p6360
aS'to'
p6361
aS'endure'
p6362
aa(lp6363
S'it'
p6364
aS'was'
p6365
aS'completely'
p6366
aS'dark'
p6367
aS'when'
p6368
ag4
aS'arrived'
p6369
aS'in'
p6370
aS'the'
p6371
aS'environs'
p6372
aS'of'
p6373
aS'geneva'
p6374
aS'the'
p6375
aS'gates'
p6376
aS'of'
p6377
aS'the'
p6378
aS'town'
p6379
aS'were'
p6380
aS'already'
p6381
aS'shut'
p6382
aS'and'
p6383
ag4
aS'was'
p6384
aS'obliged'
p6385
aS'to'
p6386
aS'pass'
p6387
aS'the'
p6388
aS'night'
p6389
aS'at'
p6390
aS'secheron'
p6391
ag62
aS'village'
p6392
aS'at'
p6393
aS'the'
p6394
aS'distance'
p6395
aS'of'
p6396
aS'half'
p6397
ag62
aS'league'
p6398
aS'from'
p6399
aS'the'
p6400
aS'city'
p6401
aa(lp6402
S'the'
p6403
aS'sky'
p6404
aS'was'
p6405
aS'serene'
p6406
aS'and'
p6407
aS'as'
p6408
ag4
aS'was'
p6409
aS'unable'
p6410
aS'to'
p6411
aS'rest'
p6412
ag4
aS'resolved'
p6413
aS'to'
p6414
aS'visit'
p6415
aS'the'
p6416
aS'spot'
p6417
aS'where'
p6418
aS'my'
p6419
aS'poor'
p6420
aS'william'
p6421
aS'had'
p6422
aS'been'
p6423
aS'murdered'
p6424
aa(lp6425
S'as'
p6426
ag4
aS'could'
p6427
aS'not'
p6428
aS'pass'
p6429
aS'through'
p6430
aS'the'
p6431
aS'town'
p6432
ag4
aS'was'
p6433
aS'obliged'
p6434
aS'to'
p6435
aS'cross'
p6436
aS'the'
p6437
aS'lake'
p6438
aS'in'
p6439
ag62
aS'boat'
p6440
aS'to'
p6441
aS'arrive'
p6442
aS'at'
p6443
aS'plainpalais'
p6444
aa(lp6445
S'during'
p6446
aS'this'
p6447
aS'short'
p6448
aS'voyage'
p6449
ag4
aS'saw'
p6450
aS'the'
p6451
aS'lightnings'
p6452
aS'playing'
p6453
aS'on'
p6454
aS'the'
p6455
aS'summit'
p6456
aS'of'
p6457
aS'mont'
p6458
aS'blanc'
p6459
aS'in'
p6460
aS'the'
p6461
aS'most'
p6462
aS'beautiful'
p6463
aS'figures'
p6464
aa(lp6465
S'the'
p6466
aS'storm'
p6467
aS'appeared'
p6468
aS'to'
p6469
aS'approach'
p6470
aS'rapidly'
p6471
aS'and'
p6472
aS'on'
p6473
aS'landing'
p6474
ag4
aS'ascended'
p6475
ag62
aS'low'
p6476
aS'hill'
p6477
aS'that'
p6478
ag4
aS'might'
p6479
aS'observe'
p6480
aS'its'
p6481
aS'progress'
p6482
aa(lp6483
S'it'
p6484
aS'advanced'
p6485
aS'the'
p6486
aS'heavens'
p6487
aS'were'
p6488
aS'clouded'
p6489
aS'and'
p6490
ag4
aS'soon'
p6491
aS'felt'
p6492
aS'the'
p6493
aS'rain'
p6494
aS'coming'
p6495
aS'slowly'
p6496
aS'in'
p6497
aS'large'
p6498
aS'drops'
p6499
aS'but'
p6500
aS'its'
p6501
aS'violence'
p6502
aS'quickly'
p6503
aS'increased'
p6504
aa(lp6505
g4
aS'quitted'
p6506
aS'my'
p6507
aS'seat'
p6508
aS'and'
p6509
aS'walked'
p6510
aS'on'
p6511
aS'although'
p6512
aS'the'
p6513
aS'darkness'
p6514
aS'and'
p6515
aS'storm'
p6516
aS'increased'
p6517
aS'every'
p6518
aS'minute'
p6519
aS'and'
p6520
aS'the'
p6521
aS'thunder'
p6522
aS'burst'
p6523
aS'with'
p6524
ag62
aS'terrific'
p6525
aS'crash'
p6526
aS'over'
p6527
aS'my'
p6528
aS'head'
p6529
aa(lp6530
S'it'
p6531
aS'was'
p6532
aS'echoed'
p6533
aS'from'
p6534
aS'saleve'
p6535
aS'the'
p6536
aS'juras'
p6537
aS'and'
p6538
aS'the'
p6539
aS'alps'
p6540
aS'of'
p6541
aS'savoy'
p6542
aS'vivid'
p6543
aS'flashes'
p6544
aS'of'
p6545
aS'lightning'
p6546
aS'dazzled'
p6547
aS'my'
p6548
aS'eyes'
p6549
aS'illuminating'
p6550
aS'the'
p6551
aS'lake'
p6552
aS'making'
p6553
aS'it'
p6554
aS'appear'
p6555
aS'like'
p6556
ag62
aS'vast'
p6557
aS'sheet'
p6558
aS'of'
p6559
aS'fire'
p6560
aS'then'
p6561
aS'for'
p6562
aS'an'
p6563
aS'instant'
p6564
aS'every'
p6565
aS'thing'
p6566
aS'seemed'
p6567
aS'of'
p6568
ag62
aS'pitchy'
p6569
aS'darkness'
p6570
aS'until'
p6571
aS'the'
p6572
aS'eye'
p6573
aS'recovered'
p6574
aS'itself'
p6575
aS'from'
p6576
aS'the'
p6577
aS'preceding'
p6578
aS'flash'
p6579
aa(lp6580
S'the'
p6581
aS'storm'
p6582
aS'as'
p6583
aS'is'
p6584
aS'often'
p6585
aS'the'
p6586
aS'case'
p6587
aS'in'
p6588
aS'switzerland'
p6589
aS'appeared'
p6590
aS'at'
p6591
aS'once'
p6592
aS'in'
p6593
aS'various'
p6594
aS'parts'
p6595
aS'of'
p6596
aS'the'
p6597
aS'heavens'
p6598
aa(lp6599
S'the'
p6600
aS'most'
p6601
aS'violent'
p6602
aS'storm'
p6603
aS'hung'
p6604
aS'exactly'
p6605
aS'north'
p6606
aS'of'
p6607
aS'the'
p6608
aS'town'
p6609
aS'over'
p6610
aS'that'
p6611
aS'part'
p6612
aS'of'
p6613
aS'the'
p6614
aS'lake'
p6615
aS'which'
p6616
aS'lies'
p6617
aS'between'
p6618
aS'the'
p6619
aS'promontory'
p6620
aS'of'
p6621
aS'belrive'
p6622
aS'and'
p6623
aS'the'
p6624
aS'village'
p6625
aS'of'
p6626
aS'copet'
p6627
aa(lp6628
S'another'
p6629
aS'storm'
p6630
aS'enlightened'
p6631
aS'jura'
p6632
aS'with'
p6633
aS'faint'
p6634
aS'flashes'
p6635
aS'and'
p6636
aS'another'
p6637
aS'darkened'
p6638
aS'and'
p6639
aS'sometimes'
p6640
aS'disclosed'
p6641
aS'the'
p6642
aS'mole'
p6643
ag62
aS'peaked'
p6644
aS'mountain'
p6645
aS'to'
p6646
aS'the'
p6647
aS'east'
p6648
aS'of'
p6649
aS'the'
p6650
aS'lake'
p6651
aa(lp6652
S'while'
p6653
ag4
aS'watched'
p6654
aS'the'
p6655
aS'tempest'
p6656
aS'so'
p6657
aS'beautiful'
p6658
aS'yet'
p6659
aS'terrific'
p6660
ag4
aS'wandered'
p6661
aS'on'
p6662
aS'with'
p6663
ag62
aS'hasty'
p6664
aS'step'
p6665
aa(lp6666
S'this'
p6667
aS'noble'
p6668
aS'war'
p6669
aS'in'
p6670
aS'the'
p6671
aS'sky'
p6672
aS'elevated'
p6673
aS'my'
p6674
aS'spirits'
p6675
ag4
aS'clasped'
p6676
aS'my'
p6677
aS'hands'
p6678
aS'and'
p6679
aS'exclaimed'
p6680
aS'aloud'
p6681
aS'william'
p6682
aS'dear'
p6683
aS'angel'
p6684
aa(lp6685
S'this'
p6686
aS'is'
p6687
aS'thy'
p6688
aS'funeral'
p6689
aS'this'
p6690
aS'thy'
p6691
aS'dirge'
p6692
aa(lp6693
S'as'
p6694
ag4
aS'said'
p6695
aS'these'
p6696
aS'words'
p6697
ag4
aS'perceived'
p6698
aS'in'
p6699
aS'the'
p6700
aS'gloom'
p6701
ag62
aS'figure'
p6702
aS'which'
p6703
aS'stole'
p6704
aS'from'
p6705
aS'behind'
p6706
ag62
aS'clump'
p6707
aS'of'
p6708
aS'trees'
p6709
aS'near'
p6710
aS'me'
p6711
ag4
aS'stood'
p6712
aS'fixed'
p6713
aS'gazing'
p6714
aS'intently'
p6715
ag4
aS'could'
p6716
aS'not'
p6717
aS'be'
p6718
aS'mistaken'
p6719
aa(lp6720
g62
aS'flash'
p6721
aS'of'
p6722
aS'lightning'
p6723
aS'illuminated'
p6724
aS'the'
p6725
aS'object'
p6726
aS'and'
p6727
aS'discovered'
p6728
aS'its'
p6729
aS'shape'
p6730
aS'plainly'
p6731
aS'to'
p6732
aS'me'
p6733
aS'its'
p6734
aS'gigantic'
p6735
aS'stature'
p6736
aS'and'
p6737
aS'the'
p6738
aS'deformity'
p6739
aS'of'
p6740
aS'its'
p6741
aS'aspect'
p6742
aS'more'
p6743
aS'hideous'
p6744
aS'than'
p6745
aS'belongs'
p6746
aS'to'
p6747
aS'humanity'
p6748
aS'instantly'
p6749
aS'informed'
p6750
aS'me'
p6751
aS'that'
p6752
aS'it'
p6753
aS'was'
p6754
aS'the'
p6755
aS'wretch'
p6756
aS'the'
p6757
aS'filthy'
p6758
aS'daemon'
p6759
aS'to'
p6760
aS'whom'
p6761
ag4
aS'had'
p6762
aS'given'
p6763
aS'life'
p6764
aa(lp6765
S'what'
p6766
aS'did'
p6767
aS'he'
p6768
aS'there'
p6769
aa(lp6770
S'could'
p6771
aS'he'
p6772
aS'be'
p6773
ag4
aS'shuddered'
p6774
aS'at'
p6775
aS'the'
p6776
aS'conception'
p6777
aS'the'
p6778
aS'murderer'
p6779
aS'of'
p6780
aS'my'
p6781
aS'brother'
p6782
aa(lp6783
S'no'
p6784
aS'sooner'
p6785
aS'did'
p6786
aS'that'
p6787
aS'idea'
p6788
aS'cross'
p6789
aS'my'
p6790
aS'imagination'
p6791
aS'than'
p6792
ag4
aS'became'
p6793
aS'convinced'
p6794
aS'of'
p6795
aS'its'
p6796
aS'truth'
p6797
aS'my'
p6798
aS'teeth'
p6799
aS'chattered'
p6800
aS'and'
p6801
ag4
aS'was'
p6802
aS'forced'
p6803
aS'to'
p6804
aS'lean'
p6805
aS'against'
p6806
ag62
aS'tree'
p6807
aS'for'
p6808
aS'support'
p6809
aa(lp6810
S'the'
p6811
aS'figure'
p6812
aS'passed'
p6813
aS'me'
p6814
aS'quickly'
p6815
aS'and'
p6816
ag4
aS'lost'
p6817
aS'it'
p6818
aS'in'
p6819
aS'the'
p6820
aS'gloom'
p6821
aa(lp6822
S'nothing'
p6823
aS'in'
p6824
aS'human'
p6825
aS'shape'
p6826
aS'could'
p6827
aS'have'
p6828
aS'destroyed'
p6829
aS'that'
p6830
aS'fair'
p6831
aS'child'
p6832
aa(lp6833
S'he'
p6834
aS'was'
p6835
aS'the'
p6836
aS'murderer'
p6837
aa(lp6838
g4
aS'could'
p6839
aS'not'
p6840
aS'doubt'
p6841
aS'it'
p6842
aa(lp6843
S'the'
p6844
aS'mere'
p6845
aS'presence'
p6846
aS'of'
p6847
aS'the'
p6848
aS'idea'
p6849
aS'was'
p6850
aS'an'
p6851
aS'irresistible'
p6852
aS'proof'
p6853
aS'of'
p6854
aS'the'
p6855
aS'fact'
p6856
aa(lp6857
g4
aS'thought'
p6858
aS'of'
p6859
aS'pursuing'
p6860
aS'the'
p6861
aS'devil'
p6862
aS'but'
p6863
aS'it'
p6864
aS'would'
p6865
aS'have'
p6866
aS'been'
p6867
aS'in'
p6868
aS'vain'
p6869
aS'for'
p6870
aS'another'
p6871
aS'flash'
p6872
aS'discovered'
p6873
aS'him'
p6874
aS'to'
p6875
aS'me'
p6876
aS'hanging'
p6877
aS'among'
p6878
aS'the'
p6879
aS'rocks'
p6880
aS'of'
p6881
aS'the'
p6882
aS'nearly'
p6883
aS'perpendicular'
p6884
aS'ascent'
p6885
aS'of'
p6886
aS'mont'
p6887
aS'saleve'
p6888
ag62
aS'hill'
p6889
aS'that'
p6890
aS'bounds'
p6891
aS'plainpalais'
p6892
aS'on'
p6893
aS'the'
p6894
aS'south'
p6895
aa(lp6896
S'he'
p6897
aS'soon'
p6898
aS'reached'
p6899
aS'the'
p6900
aS'summit'
p6901
aS'and'
p6902
aS'disappeared'
p6903
aa(lp6904
g4
aS'remained'
p6905
aS'motionless'
p6906
aa(lp6907
S'the'
p6908
aS'thunder'
p6909
aS'ceased'
p6910
aS'but'
p6911
aS'the'
p6912
aS'rain'
p6913
aS'still'
p6914
aS'continued'
p6915
aS'and'
p6916
aS'the'
p6917
aS'scene'
p6918
aS'was'
p6919
aS'enveloped'
p6920
aS'in'
p6921
aS'an'
p6922
aS'impenetrable'
p6923
aS'darkness'
p6924
aa(lp6925
g4
aS'revolved'
p6926
aS'in'
p6927
aS'my'
p6928
aS'mind'
p6929
aS'the'
p6930
aS'events'
p6931
aS'which'
p6932
ag4
aS'had'
p6933
aS'until'
p6934
aS'now'
p6935
aS'sought'
p6936
aS'to'
p6937
aS'forget'
p6938
aS'the'
p6939
aS'whole'
p6940
aS'train'
p6941
aS'of'
p6942
aS'my'
p6943
aS'progress'
p6944
aS'towards'
p6945
aS'the'
p6946
aS'creation'
p6947
aS'the'
p6948
aS'appearance'
p6949
aS'of'
p6950
aS'the'
p6951
aS'work'
p6952
aS'of'
p6953
aS'my'
p6954
aS'own'
p6955
aS'hands'
p6956
aS'alive'
p6957
aS'at'
p6958
aS'my'
p6959
aS'bedside'
p6960
aS'its'
p6961
aS'departure'
p6962
aa(lp6963
S'two'
p6964
aS'years'
p6965
aS'had'
p6966
aS'now'
p6967
aS'nearly'
p6968
aS'elapsed'
p6969
aS'since'
p6970
aS'the'
p6971
aS'night'
p6972
aS'on'
p6973
aS'which'
p6974
aS'he'
p6975
aS'first'
p6976
aS'received'
p6977
aS'life'
p6978
aS'and'
p6979
aS'was'
p6980
aS'this'
p6981
aS'his'
p6982
aS'first'
p6983
aS'crime'
p6984
aa(lp6985
S'alas'
p6986
aa(lp6987
g4
aS'had'
p6988
aS'turned'
p6989
aS'loose'
p6990
aS'into'
p6991
aS'the'
p6992
aS'world'
p6993
ag62
aS'depraved'
p6994
aS'wretch'
p6995
aS'whose'
p6996
aS'delight'
p6997
aS'was'
p6998
aS'in'
p6999
aS'carnage'
p7000
aS'and'
p7001
aS'misery'
p7002
aS'had'
p7003
aS'he'
p7004
aS'not'
p7005
aS'murdered'
p7006
aS'my'
p7007
aS'brother'
p7008
aa(lp7009
S'no'
p7010
aS'one'
p7011
aS'can'
p7012
aS'conceive'
p7013
aS'the'
p7014
aS'anguish'
p7015
ag4
aS'suffered'
p7016
aS'during'
p7017
aS'the'
p7018
aS'remainder'
p7019
aS'of'
p7020
aS'the'
p7021
aS'night'
p7022
aS'which'
p7023
ag4
aS'spent'
p7024
aS'cold'
p7025
aS'and'
p7026
aS'wet'
p7027
aS'in'
p7028
aS'the'
p7029
aS'open'
p7030
aS'air'
p7031
aa(lp7032
S'but'
p7033
ag4
aS'did'
p7034
aS'not'
p7035
aS'feel'
p7036
aS'the'
p7037
aS'inconvenience'
p7038
aS'of'
p7039
aS'the'
p7040
aS'weather'
p7041
aS'my'
p7042
aS'imagination'
p7043
aS'was'
p7044
aS'busy'
p7045
aS'in'
p7046
aS'scenes'
p7047
aS'of'
p7048
aS'evil'
p7049
aS'and'
p7050
aS'despair'
p7051
aa(lp7052
g4
aS'considered'
p7053
aS'the'
p7054
aS'being'
p7055
aS'whom'
p7056
ag4
aS'had'
p7057
aS'cast'
p7058
aS'among'
p7059
aS'mankind'
p7060
aS'and'
p7061
aS'endowed'
p7062
aS'with'
p7063
aS'the'
p7064
aS'will'
p7065
aS'and'
p7066
aS'power'
p7067
aS'to'
p7068
aS'effect'
p7069
aS'purposes'
p7070
aS'of'
p7071
aS'horror'
p7072
aS'such'
p7073
aS'as'
p7074
aS'the'
p7075
aS'deed'
p7076
aS'which'
p7077
aS'he'
p7078
aS'had'
p7079
aS'now'
p7080
aS'done'
p7081
aS'nearly'
p7082
aS'in'
p7083
aS'the'
p7084
aS'light'
p7085
aS'of'
p7086
aS'my'
p7087
aS'own'
p7088
aS'vampire'
p7089
aS'my'
p7090
aS'own'
p7091
aS'spirit'
p7092
aS'let'
p7093
aS'loose'
p7094
aS'from'
p7095
aS'the'
p7096
aS'grave'
p7097
aS'and'
p7098
aS'forced'
p7099
aS'to'
p7100
aS'destroy'
p7101
aS'all'
p7102
aS'that'
p7103
aS'was'
p7104
aS'dear'
p7105
aS'to'
p7106
aS'me'
p7107
aa(lp7108
S'day'
p7109
aS'dawned'
p7110
aS'and'
p7111
ag4
aS'directed'
p7112
aS'my'
p7113
aS'steps'
p7114
aS'towards'
p7115
aS'the'
p7116
aS'town'
p7117
aa(lp7118
S'the'
p7119
aS'gates'
p7120
aS'were'
p7121
aS'open'
p7122
aS'and'
p7123
ag4
aS'hastened'
p7124
aS'to'
p7125
aS'my'
p7126
aS'fathers'
p7127
aS'house'
p7128
aa(lp7129
S'my'
p7130
aS'first'
p7131
aS'thought'
p7132
aS'was'
p7133
aS'to'
p7134
aS'discover'
p7135
aS'what'
p7136
ag4
aS'knew'
p7137
aS'of'
p7138
aS'the'
p7139
aS'murderer'
p7140
aS'and'
p7141
aS'cause'
p7142
aS'instant'
p7143
aS'pursuit'
p7144
aS'to'
p7145
aS'be'
p7146
aS'made'
p7147
aa(lp7148
S'but'
p7149
ag4
aS'paused'
p7150
aS'when'
p7151
ag4
aS'reflected'
p7152
aS'on'
p7153
aS'the'
p7154
aS'story'
p7155
aS'that'
p7156
ag4
aS'had'
p7157
aS'to'
p7158
aS'tell'
p7159
aa(lp7160
g62
aS'being'
p7161
aS'whom'
p7162
ag4
aS'myself'
p7163
aS'had'
p7164
aS'formed'
p7165
aS'and'
p7166
aS'endued'
p7167
aS'with'
p7168
aS'life'
p7169
aS'had'
p7170
aS'met'
p7171
aS'me'
p7172
aS'at'
p7173
aS'midnight'
p7174
aS'among'
p7175
aS'the'
p7176
aS'precipices'
p7177
aS'of'
p7178
aS'an'
p7179
aS'inaccessible'
p7180
aS'mountain'
p7181
aa(lp7182
g4
aS'remembered'
p7183
aS'also'
p7184
aS'the'
p7185
aS'nervous'
p7186
aS'fever'
p7187
aS'with'
p7188
aS'which'
p7189
ag4
aS'had'
p7190
aS'been'
p7191
aS'seized'
p7192
aS'just'
p7193
aS'at'
p7194
aS'the'
p7195
aS'time'
p7196
aS'that'
p7197
ag4
aS'dated'
p7198
aS'my'
p7199
aS'creation'
p7200
aS'and'
p7201
aS'which'
p7202
aS'would'
p7203
aS'give'
p7204
aS'an'
p7205
aS'air'
p7206
aS'of'
p7207
aS'delirium'
p7208
aS'to'
p7209
ag62
aS'tale'
p7210
aS'otherwise'
p7211
aS'so'
p7212
aS'utterly'
p7213
aS'improbable'
p7214
aa(lp7215
g4
aS'well'
p7216
aS'knew'
p7217
aS'that'
p7218
aS'if'
p7219
aS'any'
p7220
aS'other'
p7221
aS'had'
p7222
aS'communicated'
p7223
aS'such'
p7224
ag62
aS'relation'
p7225
aS'to'
p7226
aS'me'
p7227
ag4
aS'should'
p7228
aS'have'
p7229
aS'looked'
p7230
aS'upon'
p7231
aS'it'
p7232
aS'as'
p7233
aS'the'
p7234
aS'ravings'
p7235
aS'of'
p7236
aS'insanity'
p7237
aa(lp7238
S'besides'
p7239
aS'the'
p7240
aS'strange'
p7241
aS'nature'
p7242
aS'of'
p7243
aS'the'
p7244
aS'animal'
p7245
aS'would'
p7246
aS'elude'
p7247
aS'all'
p7248
aS'pursuit'
p7249
aS'even'
p7250
aS'if'
p7251
ag4
aS'were'
p7252
aS'so'
p7253
aS'far'
p7254
aS'credited'
p7255
aS'as'
p7256
aS'to'
p7257
aS'persuade'
p7258
aS'my'
p7259
aS'relatives'
p7260
aS'to'
p7261
aS'commence'
p7262
aS'it'
p7263
aa(lp7264
S'and'
p7265
aS'then'
p7266
aS'of'
p7267
aS'what'
p7268
aS'use'
p7269
aS'would'
p7270
aS'be'
p7271
aS'pursuit'
p7272
aa(lp7273
S'who'
p7274
aS'could'
p7275
aS'arrest'
p7276
ag62
aS'creature'
p7277
aS'capable'
p7278
aS'of'
p7279
aS'scaling'
p7280
aS'the'
p7281
aS'overhanging'
p7282
aS'sides'
p7283
aS'of'
p7284
aS'mont'
p7285
aS'saleve'
p7286
aa(lp7287
S'these'
p7288
aS'reflections'
p7289
aS'determined'
p7290
aS'me'
p7291
aS'and'
p7292
ag4
aS'resolved'
p7293
aS'to'
p7294
aS'remain'
p7295
aS'silent'
p7296
aa(lp7297
S'it'
p7298
aS'was'
p7299
aS'about'
p7300
aS'five'
p7301
aS'in'
p7302
aS'the'
p7303
aS'morning'
p7304
aS'when'
p7305
ag4
aS'entered'
p7306
aS'my'
p7307
aS'fathers'
p7308
aS'house'
p7309
aa(lp7310
g4
aS'told'
p7311
aS'the'
p7312
aS'servants'
p7313
aS'not'
p7314
aS'to'
p7315
aS'disturb'
p7316
aS'the'
p7317
aS'family'
p7318
aS'and'
p7319
aS'went'
p7320
aS'into'
p7321
aS'the'
p7322
aS'library'
p7323
aS'to'
p7324
aS'attend'
p7325
aS'their'
p7326
aS'usual'
p7327
aS'hour'
p7328
aS'of'
p7329
aS'rising'
p7330
aa(lp7331
S'six'
p7332
aS'years'
p7333
aS'had'
p7334
aS'elapsed'
p7335
aS'passed'
p7336
aS'as'
p7337
ag62
aS'dream'
p7338
aS'but'
p7339
aS'for'
p7340
aS'one'
p7341
aS'indelible'
p7342
aS'trace'
p7343
aS'and'
p7344
ag4
aS'stood'
p7345
aS'in'
p7346
aS'the'
p7347
aS'same'
p7348
aS'place'
p7349
aS'where'
p7350
ag4
aS'had'
p7351
aS'last'
p7352
aS'embraced'
p7353
aS'my'
p7354
aS'father'
p7355
aS'before'
p7356
aS'my'
p7357
aS'departure'
p7358
aS'for'
p7359
aS'ingolstadt'
p7360
aa(lp7361
S'beloved'
p7362
aS'and'
p7363
aS'venerable'
p7364
aS'parent'
p7365
aa(lp7366
S'he'
p7367
aS'still'
p7368
aS'remained'
p7369
aS'to'
p7370
aS'me'
p7371
aa(lp7372
g4
aS'gazed'
p7373
aS'on'
p7374
aS'the'
p7375
aS'picture'
p7376
aS'of'
p7377
aS'my'
p7378
aS'mother'
p7379
aS'which'
p7380
aS'stood'
p7381
aS'over'
p7382
aS'the'
p7383
aS'mantelpiece'
p7384
aa(lp7385
S'it'
p7386
aS'was'
p7387
aS'an'
p7388
aS'historical'
p7389
aS'subject'
p7390
aS'painted'
p7391
aS'at'
p7392
aS'my'
p7393
aS'fathers'
p7394
aS'desire'
p7395
aS'and'
p7396
aS'represented'
p7397
aS'caroline'
p7398
aS'beaufort'
p7399
aS'in'
p7400
aS'an'
p7401
aS'agony'
p7402
aS'of'
p7403
aS'despair'
p7404
aS'kneeling'
p7405
aS'by'
p7406
aS'the'
p7407
aS'coffin'
p7408
aS'of'
p7409
aS'her'
p7410
aS'dead'
p7411
aS'father'
p7412
aa(lp7413
S'her'
p7414
aS'garb'
p7415
aS'was'
p7416
aS'rustic'
p7417
aS'and'
p7418
aS'her'
p7419
aS'cheek'
p7420
aS'pale'
p7421
aS'but'
p7422
aS'there'
p7423
aS'was'
p7424
aS'an'
p7425
aS'air'
p7426
aS'of'
p7427
aS'dignity'
p7428
aS'and'
p7429
aS'beauty'
p7430
aS'that'
p7431
aS'hardly'
p7432
aS'permitted'
p7433
aS'the'
p7434
aS'sentiment'
p7435
aS'of'
p7436
aS'pity'
p7437
aa(lp7438
S'below'
p7439
aS'this'
p7440
aS'picture'
p7441
aS'was'
p7442
ag62
aS'miniature'
p7443
aS'of'
p7444
aS'william'
p7445
aS'and'
p7446
aS'my'
p7447
aS'tears'
p7448
aS'flowed'
p7449
aS'when'
p7450
ag4
aS'looked'
p7451
aS'upon'
p7452
aS'it'
p7453
aa(lp7454
S'while'
p7455
ag4
aS'was'
p7456
aS'thus'
p7457
aS'engaged'
p7458
aS'ernest'
p7459
aS'entered'
p7460
aS'he'
p7461
aS'had'
p7462
aS'heard'
p7463
aS'me'
p7464
aS'arrive'
p7465
aS'and'
p7466
aS'hastened'
p7467
aS'to'
p7468
aS'welcome'
p7469
aS'me'
p7470
aa(lp7471
S'he'
p7472
aS'expressed'
p7473
ag62
aS'sorrowful'
p7474
aS'delight'
p7475
aS'to'
p7476
aS'see'
p7477
aS'me'
p7478
aS'welcome'
p7479
aS'my'
p7480
aS'dearest'
p7481
aS'victor'
p7482
aS'said'
p7483
aS'he'
p7484
aa(lp7485
S'ah'
p7486
aa(lp7487
g4
aS'wish'
p7488
aS'you'
p7489
aS'had'
p7490
aS'come'
p7491
aS'three'
p7492
aS'months'
p7493
aS'ago'
p7494
aS'and'
p7495
aS'then'
p7496
aS'you'
p7497
aS'would'
p7498
aS'have'
p7499
aS'found'
p7500
aS'us'
p7501
aS'all'
p7502
aS'joyous'
p7503
aS'and'
p7504
aS'delighted'
p7505
aa(lp7506
S'you'
p7507
aS'come'
p7508
aS'to'
p7509
aS'us'
p7510
aS'now'
p7511
aS'to'
p7512
aS'share'
p7513
ag62
aS'misery'
p7514
aS'which'
p7515
aS'nothing'
p7516
aS'can'
p7517
aS'alleviate'
p7518
aS'yet'
p7519
aS'your'
p7520
aS'presence'
p7521
aS'will'
p7522
ag4
aS'hope'
p7523
aS'revive'
p7524
aS'our'
p7525
aS'father'
p7526
aS'who'
p7527
aS'seems'
p7528
aS'sinking'
p7529
aS'under'
p7530
aS'his'
p7531
aS'misfortune'
p7532
aS'and'
p7533
aS'your'
p7534
aS'persuasions'
p7535
aS'will'
p7536
aS'induce'
p7537
aS'poor'
p7538
aS'elizabeth'
p7539
aS'to'
p7540
aS'cease'
p7541
aS'her'
p7542
aS'vain'
p7543
aS'and'
p7544
aS'tormenting'
p7545
aS'selfaccusations'
p7546
aa(lp7547
S'poor'
p7548
aS'william'
p7549
aa(lp7550
S'he'
p7551
aS'was'
p7552
aS'our'
p7553
aS'darling'
p7554
aS'and'
p7555
aS'our'
p7556
aS'pride'
p7557
aa(lp7558
S'tears'
p7559
aS'unrestrained'
p7560
aS'fell'
p7561
aS'from'
p7562
aS'my'
p7563
aS'brothers'
p7564
aS'eyes'
p7565
ag62
aS'sense'
p7566
aS'of'
p7567
aS'mortal'
p7568
aS'agony'
p7569
aS'crept'
p7570
aS'over'
p7571
aS'my'
p7572
aS'frame'
p7573
aa(lp7574
S'before'
p7575
ag4
aS'had'
p7576
aS'only'
p7577
aS'imagined'
p7578
aS'the'
p7579
aS'wretchedness'
p7580
aS'of'
p7581
aS'my'
p7582
aS'desolated'
p7583
aS'home'
p7584
aS'the'
p7585
aS'reality'
p7586
aS'came'
p7587
aS'on'
p7588
aS'me'
p7589
aS'as'
p7590
ag62
aS'new'
p7591
aS'and'
p7592
ag62
aS'not'
p7593
aS'less'
p7594
aS'terrible'
p7595
aS'disaster'
p7596
aa(lp7597
g4
aS'tried'
p7598
aS'to'
p7599
aS'calm'
p7600
aS'ernest'
p7601
ag4
aS'enquired'
p7602
aS'more'
p7603
aS'minutely'
p7604
aS'concerning'
p7605
aS'my'
p7606
aS'father'
p7607
aS'and'
p7608
aS'her'
p7609
ag4
aS'named'
p7610
aS'my'
p7611
aS'cousin'
p7612
aa(lp7613
S'she'
p7614
aS'most'
p7615
aS'of'
p7616
aS'all'
p7617
aS'said'
p7618
aS'ernest'
p7619
aS'requires'
p7620
aS'consolation'
p7621
aS'she'
p7622
aS'accused'
p7623
aS'herself'
p7624
aS'of'
p7625
aS'having'
p7626
aS'caused'
p7627
aS'the'
p7628
aS'death'
p7629
aS'of'
p7630
aS'my'
p7631
aS'brother'
p7632
aS'and'
p7633
aS'that'
p7634
aS'made'
p7635
aS'her'
p7636
aS'very'
p7637
aS'wretched'
p7638
aa(lp7639
S'but'
p7640
aS'since'
p7641
aS'the'
p7642
aS'murderer'
p7643
aS'has'
p7644
aS'been'
p7645
aS'discovered'
p7646
aS'the'
p7647
aS'murderer'
p7648
aS'discovered'
p7649
aa(lp7650
S'good'
p7651
aS'god'
p7652
aa(lp7653
S'how'
p7654
aS'can'
p7655
aS'that'
p7656
aS'be'
p7657
aa(lp7658
S'who'
p7659
aS'could'
p7660
aS'attempt'
p7661
aS'to'
p7662
aS'pursue'
p7663
aS'him'
p7664
aa(lp7665
S'it'
p7666
aS'is'
p7667
aS'impossible'
p7668
aS'one'
p7669
aS'might'
p7670
aS'as'
p7671
aS'well'
p7672
aS'try'
p7673
aS'to'
p7674
aS'overtake'
p7675
aS'the'
p7676
aS'winds'
p7677
aS'or'
p7678
aS'confine'
p7679
ag62
aS'mountainstream'
p7680
aS'with'
p7681
ag62
aS'straw'
p7682
aa(lp7683
g4
aS'saw'
p7684
aS'him'
p7685
aS'too'
p7686
aS'he'
p7687
aS'was'
p7688
aS'free'
p7689
aS'last'
p7690
aS'night'
p7691
aa(lp7692
g4
aS'do'
p7693
aS'not'
p7694
aS'know'
p7695
aS'what'
p7696
aS'you'
p7697
aS'mean'
p7698
aS'replied'
p7699
aS'my'
p7700
aS'brother'
p7701
aS'in'
p7702
aS'accents'
p7703
aS'of'
p7704
aS'wonder'
p7705
aS'but'
p7706
aS'to'
p7707
aS'us'
p7708
aS'the'
p7709
aS'discovery'
p7710
aS'we'
p7711
aS'have'
p7712
aS'made'
p7713
aS'completes'
p7714
aS'our'
p7715
aS'misery'
p7716
aa(lp7717
S'no'
p7718
aS'one'
p7719
aS'would'
p7720
aS'believe'
p7721
aS'it'
p7722
aS'at'
p7723
aS'first'
p7724
aS'and'
p7725
aS'even'
p7726
aS'now'
p7727
aS'elizabeth'
p7728
aS'will'
p7729
aS'not'
p7730
aS'be'
p7731
aS'convinced'
p7732
aS'notwithstanding'
p7733
aS'all'
p7734
aS'the'
p7735
aS'evidence'
p7736
aa(lp7737
S'indeed'
p7738
aS'who'
p7739
aS'would'
p7740
aS'credit'
p7741
aS'that'
p7742
aS'justine'
p7743
aS'moritz'
p7744
aS'who'
p7745
aS'was'
p7746
aS'so'
p7747
aS'amiable'
p7748
aS'and'
p7749
aS'fond'
p7750
aS'of'
p7751
aS'all'
p7752
aS'the'
p7753
aS'family'
p7754
aS'could'
p7755
aS'suddenly'
p7756
aS'become'
p7757
aS'capable'
p7758
aS'of'
p7759
aS'so'
p7760
aS'frightful'
p7761
aS'so'
p7762
aS'appalling'
p7763
ag62
aS'crime'
p7764
aa(lp7765
S'justine'
p7766
aS'moritz'
p7767
aa(lp7768
S'poor'
p7769
aS'poor'
p7770
aS'girl'
p7771
aS'is'
p7772
aS'she'
p7773
aS'the'
p7774
aS'accused'
p7775
aa(lp7776
S'but'
p7777
aS'it'
p7778
aS'is'
p7779
aS'wrongfully'
p7780
aS'every'
p7781
aS'one'
p7782
aS'knows'
p7783
aS'that'
p7784
aS'no'
p7785
aS'one'
p7786
aS'believes'
p7787
aS'it'
p7788
aS'surely'
p7789
aS'ernest'
p7790
aa(lp7791
S'no'
p7792
aS'one'
p7793
aS'did'
p7794
aS'at'
p7795
aS'first'
p7796
aS'but'
p7797
aS'several'
p7798
aS'circumstances'
p7799
aS'came'
p7800
aS'out'
p7801
aS'that'
p7802
aS'have'
p7803
aS'almost'
p7804
aS'forced'
p7805
aS'conviction'
p7806
aS'upon'
p7807
aS'us'
p7808
aS'and'
p7809
aS'her'
p7810
aS'own'
p7811
aS'behaviour'
p7812
aS'has'
p7813
aS'been'
p7814
aS'so'
p7815
aS'confused'
p7816
aS'as'
p7817
aS'to'
p7818
aS'add'
p7819
aS'to'
p7820
aS'the'
p7821
aS'evidence'
p7822
aS'of'
p7823
aS'facts'
p7824
ag62
aS'weight'
p7825
aS'that'
p7826
ag4
aS'fear'
p7827
aS'leaves'
p7828
aS'no'
p7829
aS'hope'
p7830
aS'for'
p7831
aS'doubt'
p7832
aa(lp7833
S'but'
p7834
aS'she'
p7835
aS'will'
p7836
aS'be'
p7837
aS'tried'
p7838
aS'today'
p7839
aS'and'
p7840
aS'you'
p7841
aS'will'
p7842
aS'then'
p7843
aS'hear'
p7844
aS'all'
p7845
aa(lp7846
S'he'
p7847
aS'related'
p7848
aS'that'
p7849
aS'the'
p7850
aS'morning'
p7851
aS'on'
p7852
aS'which'
p7853
aS'the'
p7854
aS'murder'
p7855
aS'of'
p7856
aS'poor'
p7857
aS'william'
p7858
aS'had'
p7859
aS'been'
p7860
aS'discovered'
p7861
aS'justine'
p7862
aS'had'
p7863
aS'been'
p7864
aS'taken'
p7865
aS'ill'
p7866
aS'and'
p7867
aS'confined'
p7868
aS'to'
p7869
aS'her'
p7870
aS'bed'
p7871
aS'for'
p7872
aS'several'
p7873
aS'days'
p7874
aa(lp7875
S'during'
p7876
aS'this'
p7877
aS'interval'
p7878
aS'one'
p7879
aS'of'
p7880
aS'the'
p7881
aS'servants'
p7882
aS'happening'
p7883
aS'to'
p7884
aS'examine'
p7885
aS'the'
p7886
aS'apparel'
p7887
aS'she'
p7888
aS'had'
p7889
aS'worn'
p7890
aS'on'
p7891
aS'the'
p7892
aS'night'
p7893
aS'of'
p7894
aS'the'
p7895
aS'murder'
p7896
aS'had'
p7897
aS'discovered'
p7898
aS'in'
p7899
aS'her'
p7900
aS'pocket'
p7901
aS'the'
p7902
aS'picture'
p7903
aS'of'
p7904
aS'my'
p7905
aS'mother'
p7906
aS'which'
p7907
aS'had'
p7908
aS'been'
p7909
aS'judged'
p7910
aS'to'
p7911
aS'be'
p7912
aS'the'
p7913
aS'temptation'
p7914
aS'of'
p7915
aS'the'
p7916
aS'murderer'
p7917
aa(lp7918
S'the'
p7919
aS'servant'
p7920
aS'instantly'
p7921
aS'showed'
p7922
aS'it'
p7923
aS'to'
p7924
aS'one'
p7925
aS'of'
p7926
aS'the'
p7927
aS'others'
p7928
aS'who'
p7929
aS'without'
p7930
aS'saying'
p7931
ag62
aS'word'
p7932
aS'to'
p7933
aS'any'
p7934
aS'of'
p7935
aS'the'
p7936
aS'family'
p7937
aS'went'
p7938
aS'to'
p7939
ag62
aS'magistrate'
p7940
aS'and'
p7941
aS'upon'
p7942
aS'their'
p7943
aS'deposition'
p7944
aS'justine'
p7945
aS'was'
p7946
aS'apprehended'
p7947
aa(lp7948
S'on'
p7949
aS'being'
p7950
aS'charged'
p7951
aS'with'
p7952
aS'the'
p7953
aS'fact'
p7954
aS'the'
p7955
aS'poor'
p7956
aS'girl'
p7957
aS'confirmed'
p7958
aS'the'
p7959
aS'suspicion'
p7960
aS'in'
p7961
ag62
aS'great'
p7962
aS'measure'
p7963
aS'by'
p7964
aS'her'
p7965
aS'extreme'
p7966
aS'confusion'
p7967
aS'of'
p7968
aS'manner'
p7969
aa(lp7970
S'this'
p7971
aS'was'
p7972
ag62
aS'strange'
p7973
aS'tale'
p7974
aS'but'
p7975
aS'it'
p7976
aS'did'
p7977
aS'not'
p7978
aS'shake'
p7979
aS'my'
p7980
aS'faith'
p7981
aS'and'
p7982
ag4
aS'replied'
p7983
aS'earnestly'
p7984
aS'you'
p7985
aS'are'
p7986
aS'all'
p7987
aS'mistaken'
p7988
ag4
aS'know'
p7989
aS'the'
p7990
aS'murderer'
p7991
aa(lp7992
S'justine'
p7993
aS'poor'
p7994
aS'good'
p7995
aS'justine'
p7996
aS'is'
p7997
aS'innocent'
p7998
aa(lp7999
S'at'
p8000
aS'that'
p8001
aS'instant'
p8002
aS'my'
p8003
aS'father'
p8004
aS'entered'
p8005
aa(lp8006
g4
aS'saw'
p8007
aS'unhappiness'
p8008
aS'deeply'
p8009
aS'impressed'
p8010
aS'on'
p8011
aS'his'
p8012
aS'countenance'
p8013
aS'but'
p8014
aS'he'
p8015
aS'endeavoured'
p8016
aS'to'
p8017
aS'welcome'
p8018
aS'me'
p8019
aS'cheerfully'
p8020
aS'and'
p8021
aS'after'
p8022
aS'we'
p8023
aS'had'
p8024
aS'exchanged'
p8025
aS'our'
p8026
aS'mournful'
p8027
aS'greeting'
p8028
aS'would'
p8029
aS'have'
p8030
aS'introduced'
p8031
aS'some'
p8032
aS'other'
p8033
aS'topic'
p8034
aS'than'
p8035
aS'that'
p8036
aS'of'
p8037
aS'our'
p8038
aS'disaster'
p8039
aS'had'
p8040
aS'not'
p8041
aS'ernest'
p8042
aS'exclaimed'
p8043
aS'good'
p8044
aS'god'
p8045
aS'papa'
p8046
aa(lp8047
S'victor'
p8048
aS'says'
p8049
aS'that'
p8050
aS'he'
p8051
aS'knows'
p8052
aS'who'
p8053
aS'was'
p8054
aS'the'
p8055
aS'murderer'
p8056
aS'of'
p8057
aS'poor'
p8058
aS'william'
p8059
aa(lp8060
S'we'
p8061
aS'do'
p8062
aS'also'
p8063
aS'unfortunately'
p8064
aS'replied'
p8065
aS'my'
p8066
aS'father'
p8067
aS'for'
p8068
aS'indeed'
p8069
ag4
aS'had'
p8070
aS'rather'
p8071
aS'have'
p8072
aS'been'
p8073
aS'for'
p8074
aS'ever'
p8075
aS'ignorant'
p8076
aS'than'
p8077
aS'have'
p8078
aS'discovered'
p8079
aS'so'
p8080
aS'much'
p8081
aS'depravity'
p8082
aS'and'
p8083
aS'ingratitude'
p8084
aS'in'
p8085
aS'one'
p8086
ag4
aS'valued'
p8087
aS'so'
p8088
aS'highly'
p8089
aa(lp8090
S'my'
p8091
aS'dear'
p8092
aS'father'
p8093
aS'you'
p8094
aS'are'
p8095
aS'mistaken'
p8096
aS'justine'
p8097
aS'is'
p8098
aS'innocent'
p8099
aa.S'Unknown'
p0
.